------- FILE src/up.asm LEVEL 1 PASS 2
      1  10000 ????						;;;;;;;;;;;;;;;;;;;;;;;;;;;;;;;;;;;;;;;;;;;;;;;;;;;;;;;;;;;;;;;
      2  10000 ????						; UP 1 WAY - Atari 2600 port (4K cart)
      3  10000 ????						;
      4  10000 ????						; Milestone 3 (+ edge-to-edge positioning rework):
      5  10000 ????						;   - 6 platform bands (playfield, COLUPF swaps).
      6  10000 ????						;   - Player (GRP0) drawn on its current floor band (jump-up input).
      7  10000 ????						;   - Gaps are Missile 0, repositioned per band, coloured the
      8  10000 ????						;     background so they cut a hole through the platform.
      9  10000 ????						;   - Player falls one tier when a gap scrolls under it.
     10  10000 ????						;
     11  10000 ????						; Horizontal positioning (gaps / enemy) uses the cycle-74 HMOVE
     12  10000 ????						; technique (after examples/hmove74.asm, by Omegamatrix):
     13  10000 ????						;   - In overscan a "quickPos" byte is precomputed per object
     14  10000 ????						;     (= HMOVE fine nibble | jump-table delay count).
     15  10000 ????						;   - In the kernel the object is positioned in ONE scanline: a
     16  10000 ????						;     short delay loop + an indirect jump into a RESxx strobe table
     17  10000 ????						;     that ends with `sta HMOVE` at cycle ~74. The cycle-74 HMOVE
     18  10000 ????						;     positions cleanly edge-to-edge (incl. x=0, strobe in HBLANK)
     19  10000 ????						;     and hides the HMOVE "comb" in the next line's HBLANK.
     20  10000 ????						;   The static player is positioned once at init with the plain
     21  10000 ????						;   divide-by-15 routine (off-screen, timing not critical).
     22  10000 ????						;
     23  10000 ????						; Timing:
     24  10000 ????						;   VSYNC	3   (VERTICAL_SYNC)
     25  10000 ????						;   VBLANK    36   (WSYNC loop)
     26  10000 ????						;   visible  192   (HUD 12 + 6 bands * 30, all WSYNC-exact)
     27  10000 ????						;   overscan ~30   (TIM64T timer; input + world update + precompute)
     28  10000 ????						;;;;;;;;;;;;;;;;;;;;;;;;;;;;;;;;;;;;;;;;;;;;;;;;;;;;;;;;;;;;;;;
     29  10000 ????
     30  10000 ????				       processor	6502
------- FILE vcs.h LEVEL 2 PASS 2
      0  10000 ????				       include	"vcs.h"
      1  10000 ????						; VCS.H
      2  10000 ????						; Version 1.05, 13/November/2003
      3  10000 ????
      4  10000 ????		00 69	    VERSION_VCS =	105
      5  10000 ????
      6  10000 ????						; THIS IS A PRELIMINARY RELEASE OF *THE* "STANDARD" VCS.H
      7  10000 ????						; THIS FILE IS EXPLICITLY SUPPORTED AS A DASM-PREFERRED COMPANION FILE
      8  10000 ????						; PLEASE DO *NOT* REDISTRIBUTE THIS FILE!
      9  10000 ????						;
     10  10000 ????						; This file defines hardware registers and memory mapping for the
     11  10000 ????						; Atari 2600. It is distributed as a companion machine-specific support package
     12  10000 ????						; for the DASM compiler. Updates to this file, DASM, and associated tools are
     13  10000 ????						; available at at http://www.atari2600.org/dasm
     14  10000 ????						;
     15  10000 ????						; Many thanks to the original author(s) of this file, and to everyone who has
     16  10000 ????						; contributed to understanding the Atari 2600.  If you take issue with the
     17  10000 ????						; contents, or naming of registers, please write to me (atari2600@taswegian.com)
     18  10000 ????						; with your views.  Please contribute, if you think you can improve this
     19  10000 ????						; file!
     20  10000 ????						;
     21  10000 ????						; Latest Revisions...
     22  10000 ????						; 1.05  13/NOV/2003	  - Correction to 1.04 - now functions as requested by MR.
     23  10000 ????						;			  - Added VERSION_VCS equate (which will reflect 100x version #)
     24  10000 ????						;			    This will allow conditional code to verify VCS.H being
     25  10000 ????						;			    used for code assembly.
     26  10000 ????						; 1.04  12/NOV/2003	 Added TIA_BASE_WRITE_ADDRESS and TIA_BASE_READ_ADDRESS for
     27  10000 ????						;			 convenient disassembly/reassembly compatibility for hardware
     28  10000 ????						;			 mirrored reading/writing differences.	This is more a
     29  10000 ????						;			 readability issue, and binary compatibility with disassembled
     30  10000 ????						;			 and reassembled sources.  Per Manuel Rotschkar's suggestion.
     31  10000 ????						; 1.03  12/MAY/2003	 Added SEG segment at end of file to fix old-code compatibility
     32  10000 ????						;			 which was broken by the use of segments in this file, as
     33  10000 ????						;			 reported by Manuel Polik on [stella] 11/MAY/2003
     34  10000 ????						; 1.02  22/MAR/2003	 Added TIMINT($285)
     35  10000 ????						; 1.01				Constant offset added to allow use for 3F-style bankswitching
     36  10000 ????						;						 - define TIA_BASE_ADDRESS as $40 for Tigervision carts, otherwise
     37  10000 ????						;						   it is safe to leave it undefined, and the base address will
     38  10000 ????						;						   be set to 0.  Thanks to Eckhard Stolberg for the suggestion.
     39  10000 ????						;			    Note, may use -DLABEL=EXPRESSION to define TIA_BASE_ADDRESS
     40  10000 ????						;			  - register definitions are now generated through assignment
     41  10000 ????						;			    in uninitialised segments.	This allows a changeable base
     42  10000 ????						;			    address architecture.
     43  10000 ????						; 1.0	22/MAR/2003		Initial release
     44  10000 ????
     45  10000 ????
     46  10000 ????						;-------------------------------------------------------------------------------
     47  10000 ????
     48  10000 ????						; TIA_BASE_ADDRESS
     49  10000 ????						; The TIA_BASE_ADDRESS defines the base address of access to TIA registers.
     50  10000 ????						; Normally 0, the base address should (externally, before including this file)
     51  10000 ????						; be set to $40 when creating 3F-bankswitched (and other?) cartridges.
     52  10000 ????						; The reason is that this bankswitching scheme treats any access to locations
     53  10000 ????						; < $40 as a bankswitch.
     54  10000 ????
     55  10000 ????			   -	       IFNCONST	TIA_BASE_ADDRESS
     56  10000 ????			   -TIA_BASE_ADDRESS =	0
     57  10000 ????				       ENDIF
     58  10000 ????
     59  10000 ????						; Note: The address may be defined on the command-line using the -D switch, eg:
     60  10000 ????						; dasm.exe code.asm -DTIA_BASE_ADDRESS=$40 -f3 -v5 -ocode.bin
     61  10000 ????						; *OR* by declaring the label before including this file, eg:
     62  10000 ????						; TIA_BASE_ADDRESS = $40
     63  10000 ????						;   include "vcs.h"
     64  10000 ????
     65  10000 ????						; Alternate read/write address capability - allows for some disassembly compatibility
     66  10000 ????						; usage ; to allow reassembly to binary perfect copies).  This is essentially catering
     67  10000 ????						; for the mirrored ROM hardware registers.
     68  10000 ????
     69  10000 ????						; Usage: As per above, define the TIA_BASE_READ_ADDRESS and/or TIA_BASE_WRITE_ADDRESS
     70  10000 ????						; using the -D command-line switch, as required.  If the addresses are not defined,
     71  10000 ????						; they defaut to the TIA_BASE_ADDRESS.
     72  10000 ????
     73  10000 ????			   -	       IFNCONST	TIA_BASE_READ_ADDRESS
     74  10000 ????			   -TIA_BASE_READ_ADDRESS =	TIA_BASE_ADDRESS
     75  10000 ????				       ENDIF
     76  10000 ????
     77  10000 ????			   -	       IFNCONST	TIA_BASE_WRITE_ADDRESS
     78  10000 ????			   -TIA_BASE_WRITE_ADDRESS =	TIA_BASE_ADDRESS
     79  10000 ????				       ENDIF
     80  10000 ????
     81  10000 ????						;-------------------------------------------------------------------------------
     82  10000 ????
     83 U002d ????				      SEG.U	TIA_REGISTERS_WRITE
     84 U0000					      ORG	TIA_BASE_WRITE_ADDRESS
     85 U0000
     86 U0000							; DO NOT CHANGE THE RELATIVE ORDERING OF REGISTERS!
     87 U0000
     88 U0000		       00	   VSYNC      ds	1	; $00	 0000 00x0   Vertical Sync Set-Clear
     89 U0001		       00	   VBLANK     ds	1	; $01	 xx00 00x0   Vertical Blank Set-Clear
     90 U0002		       00	   WSYNC      ds	1	; $02	 ---- ----   Wait for Horizontal Blank
     91 U0003		       00	   RSYNC      ds	1	; $03	 ---- ----   Reset Horizontal Sync Counter
     92 U0004		       00	   NUSIZ0     ds	1	; $04	 00xx 0xxx   Number-Size player/missle 0
     93 U0005		       00	   NUSIZ1     ds	1	; $05	 00xx 0xxx   Number-Size player/missle 1
     94 U0006		       00	   COLUP0     ds	1	; $06	 xxxx xxx0   Color-Luminance Player 0
     95 U0007		       00	   COLUP1     ds	1	; $07	 xxxx xxx0   Color-Luminance Player 1
     96 U0008		       00	   COLUPF     ds	1	; $08	 xxxx xxx0   Color-Luminance Playfield
     97 U0009		       00	   COLUBK     ds	1	; $09	 xxxx xxx0   Color-Luminance Background
     98 U000a		       00	   CTRLPF     ds	1	; $0A	 00xx 0xxx   Control Playfield, Ball, Collisions
     99 U000b		       00	   REFP0      ds	1	; $0B	 0000 x000   Reflection Player 0
    100 U000c		       00	   REFP1      ds	1	; $0C	 0000 x000   Reflection Player 1
    101 U000d		       00	   PF0	      ds	1	; $0D	 xxxx 0000   Playfield Register Byte 0
    102 U000e		       00	   PF1	      ds	1	; $0E	 xxxx xxxx   Playfield Register Byte 1
    103 U000f		       00	   PF2	      ds	1	; $0F	 xxxx xxxx   Playfield Register Byte 2
    104 U0010		       00	   RESP0      ds	1	; $10	 ---- ----   Reset Player 0
    105 U0011		       00	   RESP1      ds	1	; $11	 ---- ----   Reset Player 1
    106 U0012		       00	   RESM0      ds	1	; $12	 ---- ----   Reset Missle 0
    107 U0013		       00	   RESM1      ds	1	; $13	 ---- ----   Reset Missle 1
    108 U0014		       00	   RESBL      ds	1	; $14	 ---- ----   Reset Ball
    109 U0015		       00	   AUDC0      ds	1	; $15	 0000 xxxx   Audio Control 0
    110 U0016		       00	   AUDC1      ds	1	; $16	 0000 xxxx   Audio Control 1
    111 U0017		       00	   AUDF0      ds	1	; $17	 000x xxxx   Audio Frequency 0
    112 U0018		       00	   AUDF1      ds	1	; $18	 000x xxxx   Audio Frequency 1
    113 U0019		       00	   AUDV0      ds	1	; $19	 0000 xxxx   Audio Volume 0
    114 U001a		       00	   AUDV1      ds	1	; $1A	 0000 xxxx   Audio Volume 1
    115 U001b		       00	   GRP0       ds	1	; $1B	 xxxx xxxx   Graphics Register Player 0
    116 U001c		       00	   GRP1       ds	1	; $1C	 xxxx xxxx   Graphics Register Player 1
    117 U001d		       00	   ENAM0      ds	1	; $1D	 0000 00x0   Graphics Enable Missle 0
    118 U001e		       00	   ENAM1      ds	1	; $1E	 0000 00x0   Graphics Enable Missle 1
    119 U001f		       00	   ENABL      ds	1	; $1F	 0000 00x0   Graphics Enable Ball
    120 U0020		       00	   HMP0       ds	1	; $20	 xxxx 0000   Horizontal Motion Player 0
    121 U0021		       00	   HMP1       ds	1	; $21	 xxxx 0000   Horizontal Motion Player 1
    122 U0022		       00	   HMM0       ds	1	; $22	 xxxx 0000   Horizontal Motion Missle 0
    123 U0023		       00	   HMM1       ds	1	; $23	 xxxx 0000   Horizontal Motion Missle 1
    124 U0024		       00	   HMBL       ds	1	; $24	 xxxx 0000   Horizontal Motion Ball
    125 U0025		       00	   VDELP0     ds	1	; $25	 0000 000x   Vertical Delay Player 0
    126 U0026		       00	   VDELP1     ds	1	; $26	 0000 000x   Vertical Delay Player 1
    127 U0027		       00	   VDELBL     ds	1	; $27	 0000 000x   Vertical Delay Ball
    128 U0028		       00	   RESMP0     ds	1	; $28	 0000 00x0   Reset Missle 0 to Player 0
    129 U0029		       00	   RESMP1     ds	1	; $29	 0000 00x0   Reset Missle 1 to Player 1
    130 U002a		       00	   HMOVE      ds	1	; $2A	 ---- ----   Apply Horizontal Motion
    131 U002b		       00	   HMCLR      ds	1	; $2B	 ---- ----   Clear Horizontal Move Registers
    132 U002c		       00	   CXCLR      ds	1	; $2C	 ---- ----   Clear Collision Latches
    133 U002d
    134 U002d							;-------------------------------------------------------------------------------
    135 U002d
    136 U000e ????				      SEG.U	TIA_REGISTERS_READ
    137 U0000					      ORG	TIA_BASE_READ_ADDRESS
    138 U0000
    139 U0000							;											bit 7	 bit 6
    140 U0000		       00	   CXM0P      ds	1	; $00	     xx00 0000	     Read Collision  M0-P1   M0-P0
    141 U0001		       00	   CXM1P      ds	1	; $01	     xx00 0000			     M1-P0   M1-P1
    142 U0002		       00	   CXP0FB     ds	1	; $02	     xx00 0000			     P0-PF   P0-BL
    143 U0003		       00	   CXP1FB     ds	1	; $03	     xx00 0000			     P1-PF   P1-BL
    144 U0004		       00	   CXM0FB     ds	1	; $04	     xx00 0000			     M0-PF   M0-BL
    145 U0005		       00	   CXM1FB     ds	1	; $05	     xx00 0000			     M1-PF   M1-BL
    146 U0006		       00	   CXBLPF     ds	1	; $06	     x000 0000			     BL-PF   -----
    147 U0007		       00	   CXPPMM     ds	1	; $07	     xx00 0000			     P0-P1   M0-M1
    148 U0008		       00	   INPT0      ds	1	; $08	     x000 0000	     Read Pot Port 0
    149 U0009		       00	   INPT1      ds	1	; $09	     x000 0000	     Read Pot Port 1
    150 U000a		       00	   INPT2      ds	1	; $0A	     x000 0000	     Read Pot Port 2
    151 U000b		       00	   INPT3      ds	1	; $0B	     x000 0000	     Read Pot Port 3
    152 U000c		       00	   INPT4      ds	1	; $0C		x000 0000	 Read Input (Trigger) 0
    153 U000d		       00	   INPT5      ds	1	; $0D		x000 0000	 Read Input (Trigger) 1
    154 U000e
    155 U000e							;-------------------------------------------------------------------------------
    156 U000e
    157 U0298 ????				      SEG.U	RIOT
    158 U0280					      ORG	$280
    159 U0280
    160 U0280							; RIOT MEMORY MAP
    161 U0280
    162 U0280		       00	   SWCHA      ds	1	; $280      Port A data register for joysticks:
    163 U0281							;			Bits 4-7 for player 1.  Bits 0-3 for player 2.
    164 U0281
    165 U0281		       00	   SWACNT     ds	1	; $281      Port A data direction register (DDR)
    166 U0282		       00	   SWCHB      ds	1	; $282		Port B data (console switches)
    167 U0283		       00	   SWBCNT     ds	1	; $283      Port B DDR
    168 U0284		       00	   INTIM      ds	1	; $284		Timer output
    169 U0285
    170 U0285		       00	   TIMINT     ds	1	; $285
    171 U0286
    172 U0286							; Unused/undefined registers ($285-$294)
    173 U0286
    174 U0286		       00		      ds	1	; $286
    175 U0287		       00		      ds	1	; $287
    176 U0288		       00		      ds	1	; $288
    177 U0289		       00		      ds	1	; $289
    178 U028a		       00		      ds	1	; $28A
    179 U028b		       00		      ds	1	; $28B
    180 U028c		       00		      ds	1	; $28C
    181 U028d		       00		      ds	1	; $28D
    182 U028e		       00		      ds	1	; $28E
    183 U028f		       00		      ds	1	; $28F
    184 U0290		       00		      ds	1	; $290
    185 U0291		       00		      ds	1	; $291
    186 U0292		       00		      ds	1	; $292
    187 U0293		       00		      ds	1	; $293
    188 U0294
    189 U0294		       00	   TIM1T      ds	1	; $294		set 1 clock interval
    190 U0295		       00	   TIM8T      ds	1	; $295      set 8 clock interval
    191 U0296		       00	   TIM64T     ds	1	; $296      set 64 clock interval
    192 U0297		       00	   T1024T     ds	1	; $297      set 1024 clock interval
    193 U0298
    194 U0298							;-------------------------------------------------------------------------------
    195 U0298							; The following required for back-compatibility with code which does not use
    196 U0298							; segments.
    197 U0298
    198  0000 ????				      SEG
    199  0000 ????
    200  0000 ????						; EOF
    201  0000 ????
------- FILE src/up.asm
------- FILE macro.h LEVEL 2 PASS 2
      0  0000 ????				      include	"macro.h"
      1  0000 ????						; MACRO.H
      2  0000 ????						; Version 1.06, 3/SEPTEMBER/2004
      3  0000 ????
      4  0000 ????	       00 6a	   VERSION_MACRO =	106
      5  0000 ????
      6  0000 ????						;
      7  0000 ????						; THIS FILE IS EXPLICITLY SUPPORTED AS A DASM-PREFERRED COMPANION FILE
      8  0000 ????						; PLEASE DO *NOT* REDISTRIBUTE MODIFIED VERSIONS OF THIS FILE!
      9  0000 ????						;
     10  0000 ????						; This file defines DASM macros useful for development for the Atari 2600.
     11  0000 ????						; It is distributed as a companion machine-specific support package
     12  0000 ????						; for the DASM compiler. Updates to this file, DASM, and associated tools are
     13  0000 ????						; available at at http://www.atari2600.org/dasm
     14  0000 ????						;
     15  0000 ????						; Many thanks to the people who have contributed.  If you take issue with the
     16  0000 ????						; contents, or would like to add something, please write to me
     17  0000 ????						; (atari2600@taswegian.com) with your contribution.
     18  0000 ????						;
     19  0000 ????						; Latest Revisions...
     20  0000 ????						;
     21  0000 ????						; 1.06  03/SEP/2004	 - nice revision of VERTICAL_BLANK (Edwin Blink)
     22  0000 ????						; 1.05  14/NOV/2003	 - Added VERSION_MACRO equate (which will reflect 100x version #)
     23  0000 ????						;			   This will allow conditional code to verify MACRO.H being
     24  0000 ????						;			   used for code assembly.
     25  0000 ????						; 1.04  13/NOV/2003	 - SET_POINTER macro added (16-bit address load)
     26  0000 ????						;
     27  0000 ????						; 1.03  23/JUN/2003	 - CLEAN_START macro added - clears TIA, RAM, registers
     28  0000 ????						;
     29  0000 ????						; 1.02  14/JUN/2003	 - VERTICAL_SYNC macro added
     30  0000 ????						;			   (standardised macro for vertical synch code)
     31  0000 ????						; 1.01  22/MAR/2003	 - SLEEP macro added.
     32  0000 ????						;			 - NO_ILLEGAL_OPCODES switch implemented
     33  0000 ????						; 1.0	22/MAR/2003		Initial release
     34  0000 ????
     35  0000 ????						; Note: These macros use illegal opcodes.  To disable illegal opcode usage,
     36  0000 ????						;   define the symbol NO_ILLEGAL_OPCODES (-DNO_ILLEGAL_OPCODES=1 on command-line).
     37  0000 ????						;   If you do not allow illegal opcode usage, you must include this file
     38  0000 ????						;   *after* including VCS.H (as the non-illegal opcodes access hardware
     39  0000 ????						;   registers and require them to be defined first).
     40  0000 ????
     41  0000 ????						; Available macros...
     42  0000 ????						;   SLEEP n		 - sleep for n cycles
     43  0000 ????						;   VERTICAL_SYNC	 - correct 3 scanline vertical synch code
     44  0000 ????						;   CLEAN_START	 - set machine to known state on startup
     45  0000 ????						;   SET_POINTER	 - load a 16-bit absolute to a 16-bit variable
     46  0000 ????
     47  0000 ????						;-------------------------------------------------------------------------------
     48  0000 ????						; SLEEP duration
     49  0000 ????						; Original author: Thomas Jentzsch
     50  0000 ????						; Inserts code which takes the specified number of cycles to execute.	This is
     51  0000 ????						; useful for code where precise timing is required.
     52  0000 ????						; ILLEGAL-OPCODE VERSION DOES NOT AFFECT FLAGS OR REGISTERS.
     53  0000 ????						; LEGAL OPCODE VERSION MAY AFFECT FLAGS
     54  0000 ????						; Uses illegal opcode (DASM 2.20.01 onwards).
     55  0000 ????
     56  0000 ????				      MAC	sleep
     57  0000 ????			   .CYCLES    SET	{1}
     58  0000 ????
     59  0000 ????				      IF	.CYCLES < 2
     60  0000 ????				      ECHO	"MACRO ERROR: 'SLEEP': Duration must be > 1"
     61  0000 ????				      ERR
     62  0000 ????				      ENDIF
     63  0000 ????
     64  0000 ????				      IF	.CYCLES & 1
     65  0000 ????				      IFNCONST	NO_ILLEGAL_OPCODES
     66  0000 ????				      nop	0
     67  0000 ????				      ELSE
     68  0000 ????				      bit	VSYNC
     69  0000 ????				      ENDIF
     70  0000 ????			   .CYCLES    SET	.CYCLES - 3
     71  0000 ????				      ENDIF
     72  0000 ????
     73  0000 ????				      REPEAT	.CYCLES / 2
     74  0000 ????				      nop
     75  0000 ????				      REPEND
     76  0000 ????				      ENDM		;usage: SLEEP n (n>1)
     77  0000 ????
     78  0000 ????						;-------------------------------------------------------------------------------
     79  0000 ????						; VERTICAL_SYNC
     80  0000 ????						; revised version by Edwin Blink -- saves bytes!
     81  0000 ????						; Inserts the code required for a proper 3 scanline vertical sync sequence
     82  0000 ????						; Note: Alters the accumulator
     83  0000 ????
     84  0000 ????						; OUT: A = 0
     85  0000 ????
     86  0000 ????				      MAC	vertical_sync
     87  0000 ????				      lda	#%1110	; each '1' bits generate a VSYNC ON line (bits 1..3)
     88  0000 ????			   .VSLP1     sta	WSYNC	; 1st '0' bit resets Vsync, 2nd '0' bit exit loop
     89  0000 ????				      sta	VSYNC
     90  0000 ????				      lsr
     91  0000 ????				      bne	.VSLP1	; branch until VYSNC has been reset
     92  0000 ????				      ENDM
     93  0000 ????
     94  0000 ????						;-------------------------------------------------------------------------------
     95  0000 ????						; CLEAN_START
     96  0000 ????						; Original author: Andrew Davie
     97  0000 ????						; Standardised start-up code, clears stack, all TIA registers and RAM to 0
     98  0000 ????						; Sets stack pointer to $FF, and all registers to 0
     99  0000 ????						; Sets decimal mode off, sets interrupt flag (kind of un-necessary)
    100  0000 ????						; Use as very first section of code on boot (ie: at reset)
    101  0000 ????						; Code written to minimise total ROM usage - uses weird 6502 knowledge :)
    102  0000 ????
    103  0000 ????				      MAC	clean_start
    104  0000 ????				      sei
    105  0000 ????				      cld
    106  0000 ????
    107  0000 ????				      ldx	#0
    108  0000 ????				      txa
    109  0000 ????				      tay
    110  0000 ????			   .CLEAR_STACK dex
    111  0000 ????				      txs
    112  0000 ????				      pha
    113  0000 ????				      bne	.CLEAR_STACK	; SP=$FF, X = A = Y = 0
    114  0000 ????
    115  0000 ????				      ENDM
    116  0000 ????
    117  0000 ????						;-------------------------------------------------------
    118  0000 ????						; SET_POINTER
    119  0000 ????						; Original author: Manuel Rotschkar
    120  0000 ????						;
    121  0000 ????						; Sets a 2 byte RAM pointer to an absolute address.
    122  0000 ????						;
    123  0000 ????						; Usage: SET_POINTER pointer, address
    124  0000 ????						; Example: SET_POINTER SpritePTR, SpriteData
    125  0000 ????						;
    126  0000 ????						; Note: Alters the accumulator, NZ flags
    127  0000 ????						; IN 1: 2 byte RAM location reserved for pointer
    128  0000 ????						; IN 2: absolute address
    129  0000 ????
    130  0000 ????				      MAC	set_pointer
    131  0000 ????			   .POINTER   SET	{1}
    132  0000 ????			   .ADDRESS   SET	{2}
    133  0000 ????
    134  0000 ????				      LDA	#<.ADDRESS	; Get Lowbyte of Address
    135  0000 ????				      STA	.POINTER	; Store in pointer
    136  0000 ????				      LDA	#>.ADDRESS	; Get Hibyte of Address
    137  0000 ????				      STA	.POINTER+1	; Store in pointer+1
    138  0000 ????
    139  0000 ????				      ENDM
    140  0000 ????
    141  0000 ????						;-------------------------------------------------------
    142  0000 ????						; BOUNDARY byte#
    143  0000 ????						; Original author: Denis Debro (borrowed from Bob Smith / Thomas)
    144  0000 ????						;
    145  0000 ????						; Push data to a certain position inside a page and keep count of how
    146  0000 ????						; many free bytes the programmer will have.
    147  0000 ????						;
    148  0000 ????						; eg: BOUNDARY 5    ; position at byte #5 in page
    149  0000 ????
    150  0000 ????			   .FREE_BYTES SET	0
    151  0000 ????				      MAC	boundary
    152  0000 ????				      REPEAT	256
    153  0000 ????				      IF	<. % {1} = 0
    154  0000 ????				      MEXIT
    155  0000 ????				      ELSE
    156  0000 ????			   .FREE_BYTES SET	.FREE_BYTES + 1
    157  0000 ????				      .byte	$00
    158  0000 ????				      ENDIF
    159  0000 ????				      REPEND
    160  0000 ????				      ENDM
    161  0000 ????
    162  0000 ????						;-------------------------------------------------------
    163  0000 ????						; SKIP_SCANLINES #lines
    164  0000 ????						;
    165  0000 ????						; Skip a given # of scanlines.
    166  0000 ????						; Sets the X register to zero.
    167  0000 ????
    168  0000 ????				      MAC	skip_scanlines
    169  0000 ????			   .LINES     SET	{1}
    170  0000 ????				      ldx	#.LINES
    171  0000 ????			   .vblank    sta	WSYNC
    172  0000 ????				      dex
    173  0000 ????				      bne	.vblank
    174  0000 ????				      ENDM
    175  0000 ????
    176  0000 ????						; EOF
    177  0000 ????
------- FILE src/up.asm
     33  0000 ????
     34  0000 ????						;-------------------------------------------------------------
     35  0000 ????						; Constants
     36  0000 ????						;-------------------------------------------------------------
     37  0000 ????	       00 0e	   COL_BG     =	$0E	; light grey background
     38  0000 ????	       00 c8	   COL_GREEN  =	$C8	; platform top (green)
     39  0000 ????	       00 06	   COL_GREY   =	$06	; platform underside (dark grey)
     40  0000 ????	       00 02	   COL_PLAYER =	$02	; player sprite (dark grey)
     41  0000 ????
     42  0000 ????	       00 0a	   PLAYER_X   =	10	; fixed horizontal position of the player
     43  0000 ????
     44  0000 ????	       00 0c	   HUD_LINES  =	12
     45  0000 ????	       00 06	   NUM_BANDS  =	6
     46  0000 ????	       00 08	   SPRITE_H   =	8	; sprite data rows. band = setbg 1 + gap pos 2 + entity
     47  0000 ????						;   pos 2 + sprite 14 (6 body rows x2 + 2 blank foot) +
     48  0000 ????						;   green 5 + grey 6 = 30. No dedicated air pad: the
     49  0000 ????						;   positioning lines above already show as background
     50  0000 ????						;   (gap + sprites are off there) and double as the air.
     51  0000 ????	       00 05	   BAND_GREEN =	5
     52  0000 ????	       00 06	   BAND_GREY  =	6
     53  0000 ????
     54  0000 ????	       00 08	   GAP_WIDTH  =	8	; missile gap width (NUSIZ0 = $30)
     55  0000 ????	       00 9f	   GAP_WRAP   =	159	; respawn x at the right edge (cycle-74 reaches 0..159)
     56  0000 ????	       00 0e	   FALL_LO    =	14	; gap-under-player window [FALL_LO..FALL_HI], centred on
     57  0000 ????	       00 12	   FALL_HI    =	18	;   ~15 (measured: gap fully under the player at gapX~15)
     58  0000 ????
     59  0000 ????						; entities (GRP1): one per platform, scroll right-to-left
     60  0000 ????	       00 01	   ENT_CONE   =	1	; gold collectible (+1 score)
     61  0000 ????	       00 02	   ENT_SKULL  =	2	; red hazard
     62  0000 ????	       00 2c	   COL_CONE   =	$2C	; gold / yellow
     63  0000 ????	       00 46	   COL_SKULL  =	$46	; red
     64  0000 ????	       00 98	   ENT_WRAP   =	152	; respawn x. Kept <=152 so the 8px GRP1 object never
     65  0000 ????						; reaches the wrap zone (153-159): an object there would
     66  0000 ????						; mod-160 wrap part of the sprite to the LEFT edge,
     67  0000 ????						; flashing the freshly-rerolled type at pixel 0.
     68  0000 ????	       00 20	   ENT_DELAY_MIN =	32	; off-screen wait before an entity re-enters:
     69  0000 ????	       00 7f	   ENT_DELAY_MASK =	$7f	;   ENT_DELAY_MIN + (rng & MASK) = 32..159 frames
     70  0000 ????	       00 91	   GAP_SPAWN_CLEAR =	145	; don't spawn an entity while this floor's gap is >= here
     71  0000 ????	       00 10	   ENT_DEFER  =	16	;   (it would overlap the spawn x); recheck after this many frames
     72  0000 ????
     73  0000 ????						; Scroll speed in 1/32-px fixed point. Per-frame step = (scrollFrac + scrollSpeed)
     74  0000 ????						; >> 5 whole pixels; the low 5 bits carry as the fraction. Keep SPEED_MAX <= 224
     75  0000 ????						; so scrollFrac (<=31) + scrollSpeed never overflows 8 bits.
     76  0000 ????	       00 20	   SPEED_BASE =	32	; base speed (= 1.0 px/frame)
     77  0000 ????	       00 01	   SPEED_INC  =	1	; per cone (= +0.125 px/frame; ~24 cones to top speed)
     78  0000 ????	       00 80	   SPEED_MAX  =	128	; cap (= 4.0 px/frame; <= the fall window so falls hold)
     79  0000 ????
     80  0000 ????						; Player run-cycle animation. The frame swaps every animTimer frames, and the
     81  0000 ????						; interval shortens with scroll speed: interval = ANIM_BASE - (scrollSpeed >> 3).
     82  0000 ????						; (scrollSpeed 32..128 -> interval 18..6 frames; keep ANIM_BASE > SPEED_MAX>>3.)
     83  0000 ????	       00 16	   ANIM_BASE  =	22
     84  0000 ????
     85  0000 ????	       00 42	   COL_GAMEOVER =	$42	; red background tint while game over
     86  0000 ????
     87  0000 ????						; HUD score (48-pixel 6-digit method, after examples/6-digit-score.asm)
     88  0000 ????	       00 03	   THREE_COPIES =	%011	; NUSIZ: 3 close copies (P0 + P1 interleaved = 6 digits)
     89  0000 ????	       00 00	   SCORE_COL  =	$00	; black digits on the grey background
     90  0000 ????	       00 24	   SCORE_SLEEP =	36	; positions the score block (RESP0/RESP1 timing)
     91  0000 ????	       00 17	   PLAYER_SLEEP =	23	; re-strobes the player P0 near PLAYER_X after the HUD
     92  0000 ????
     93  0000 ????						;-------------------------------------------------------------
     94  0000 ????						; RAM
     95  0000 ????						;-------------------------------------------------------------
     96 U00d7 ????				      SEG.U	vars
     97 U0080					      org	$80
     98 U0080
     99 U0080		       00	   playerFloor ds	1	; 0 = top tier .. 5 = bottom tier
    100 U0081		       00	   playerBandCount ds	1	; bandCount value at which to draw the player
    101 U0082		       00	   btnPrev    ds	1	; fire button state last frame (edge detect)
    102 U0083		       00	   bandCount  ds	1	; bands remaining in the visible kernel
    103 U0084		       00	   curFloor   ds	1	; floor index of the band being drawn
    104 U0085		       00	   tempOne    ds	1	; scratch for the fast divide in CalcQuickPos
    105 U0086		       00	   tempFloor  ds	1	; scratch floor index across CalcQuickPos
    106 U0087		       00 00	   sprPtr     ds	2	; pointer to current band's sprite data
    107 U0089		       00 00	   posJmp     ds	2	; indirect pointer into the missile strobe table
    108 U008b		       00 00 00 00*gapX       ds	6	; per-floor gap x position (floor 5 unused/no gap)
    109 U0091		       00 00 00 00*gapQuick   ds	6	; per-floor precomputed quickPos (HMM0 fine | delay count)
    110 U0097		       00 00 00 00*posJmpLo   ds	6	; per-floor precomputed strobe-table entry (low byte)
    111 U009d		       00 00 00 00*entType    ds	6	; per-floor entity: 0 none/hidden, 1 cone, 2 skull
    112 U00a3		       00 00 00 00*entX       ds	6	; per-floor entity x position
    113 U00a9		       00 00 00 00*entDelay   ds	6	; per-floor frames left to wait off-screen before respawn
    114 U00af		       00	   scrollSpeed ds	1	; fractional scroll speed (ramps with score)
    115 U00b0		       00	   scrollFrac ds	1	; fixed-point fractional accumulator
    116 U00b1		       00	   scrollStep ds	1	; whole pixels to scroll this frame
    117 U00b2		       00 00 00 00*entQuick   ds	6	; per-floor precomputed quickPos for the entity (GRP1)
    118 U00b8		       00 00 00 00*entJmpLo   ds	6	; per-floor precomputed strobe-table entry (low byte)
    119 U00be		       00 00	   entPtr     ds	2	; pointer to the current band's entity sprite
    120 U00c0		       00	   rng	      ds	1	; PRNG state (LFSR)
    121 U00c1		       00	   gameState  ds	1	; 0 = playing, 1 = game over
    122 U00c2		       00 00 00    scoreBCD   ds	3	; BCD score (low 4 digits shown)
    123 U00c5		       00 00	   hiScore    ds	2	; 4-digit BCD high score (persists across games)
    124 U00c7		       00	   goCnt      ds	1	; game-over text cycle: 0-119 GAMEOVER, 120-239 HInnnn
    125 U00c8		       00	   animFrame  ds	1	; player run-cycle frame (0 or 1)
    126 U00c9		       00	   animTimer  ds	1	; frames left until the next player-frame swap
    127 U00ca		       00 00 00 00*Digit0     ds	12	; 6 font pointers (Digit0..Digit5) for the score kernel
    128 U00d6		       00	   loopCnt    ds	1	; scanline counter inside DrawDigits
    129 U00d7
    130 U00d7							;-------------------------------------------------------------
    131 U00d7							; ROM
    132 U00d7							;-------------------------------------------------------------
    133  10000 ????				       SEG	code
    134  f000					      org	$f000
    135  f000
    136  f000				   Reset
      0  f000					      CLEAN_START		; zeros all RAM (hiScore starts at 0)
      1  f000		       78		      sei
      2  f001		       d8		      cld
      3  f002
      4  f002		       a2 00		      ldx	#0
      5  f004		       8a		      txa
      6  f005		       a8		      tay
      7  f006		       ca	   .CLEAR_STACK dex
      8  f007		       9a		      txs
      9  f008		       48		      pha
     10  f009		       d0 fb		      bne	.CLEAR_STACK
     11  f00b
    138  f00b
    139  f00b							; --- one-time setup (survives a soft restart) ---
    140  f00b							; Solid, full-width playfield (held for the whole program)
    141  f00b		       a9 f0		      lda	#$F0
    142  f00d		       85 0d		      sta	PF0
    143  f00f		       a9 ff		      lda	#$FF
    144  f011		       85 0e		      sta	PF1
    145  f013		       85 0f		      sta	PF2
    146  f015		       a9 00		      lda	#0
    147  f017		       85 0a		      sta	CTRLPF	; players/missiles draw over the playfield
    148  f019
    149  f019							; Missile 0 is GAP_WIDTH wide (player stays normal width)
    150  f019		       a9 30		      lda	#$30
    151  f01b		       85 04		      sta	NUSIZ0
    152  f01d
    153  f01d							; Default every motion register to $80, the cycle-74 HMOVE "no motion"
    154  f01d							; value: the per-band cycle-74 HMOVEs re-apply ALL HMxx, and $00 there
    155  f01d							; is NOT zero motion (it would walk the object); $80 (NO_MO_74) holds
    156  f01d							; non-targeted objects still. The player P0 is (re)placed each frame in
    157  f01d							; the HUD transition; gaps/entities are placed per band.
    158  f01d		       85 2b		      sta	HMCLR
    159  f01f		       a9 80		      lda	#$80
    160  f021		       85 20		      sta	HMP0
    161  f023		       85 22		      sta	HMM0
    162  f025		       85 21		      sta	HMP1
    163  f027
    164  f027		       a9 01		      lda	#1
    165  f029		       85 c0		      sta	rng	; PRNG seed (set once; advances across games)
    166  f02b
    167  f02b							;-------------------------------------------------------------
    168  f02b							; NewGame - (re)start a round. Reached from Reset and from a game-over
    169  f02b							; restart. Resets all gameplay state but NOT hiScore (or rng).
    170  f02b							;-------------------------------------------------------------
    171  f02b				   NewGame
    172  f02b		       a9 0e		      lda	#COL_BG
    173  f02d		       85 09		      sta	COLUBK	; clear any game-over red tint
    174  f02f
    175  f02f		       a9 05		      lda	#5
    176  f031		       85 80		      sta	playerFloor	; player starts on the bottom tier
    177  f033		       a9 00		      lda	#0
    178  f035		       85 82		      sta	btnPrev
    179  f037		       85 c1		      sta	gameState
    180  f039		       85 c7		      sta	goCnt
    181  f03b		       85 c2		      sta	scoreBCD+0
    182  f03d		       85 c3		      sta	scoreBCD+1
    183  f03f		       85 c4		      sta	scoreBCD+2
    184  f041		       85 b0		      sta	scrollFrac
    185  f043		       85 c8		      sta	animFrame	; start on run-cycle frame 0
    186  f045		       a9 16		      lda	#ANIM_BASE
    187  f047		       85 c9		      sta	animTimer
    188  f049		       a9 20		      lda	#SPEED_BASE
    189  f04b		       85 af		      sta	scrollSpeed	; start each game at base speed (1 px/frame)
    190  f04d
    191  f04d							; Staggered initial gap positions (floor 5 has no gap)
    192  f04d		       a9 8c		      lda	#140
    193  f04f		       85 8b		      sta	gapX+0
    194  f051		       a9 6e		      lda	#110
    195  f053		       85 8c		      sta	gapX+1
    196  f055		       a9 50		      lda	#80
    197  f057		       85 8d		      sta	gapX+2
    198  f059		       a9 32		      lda	#50
    199  f05b		       85 8e		      sta	gapX+3
    200  f05d		       a9 82		      lda	#130
    201  f05f		       85 8f		      sta	gapX+4
    202  f061		       a9 00		      lda	#0
    203  f063		       85 90		      sta	gapX+5
    204  f065
    205  f065							; Entities: staggered positions and initial types (one per platform)
    206  f065		       a9 01		      lda	#ENT_CONE
    207  f067		       85 9d		      sta	entType+0
    208  f069		       a9 02		      lda	#ENT_SKULL
    209  f06b		       85 9e		      sta	entType+1
    210  f06d		       a9 01		      lda	#ENT_CONE
    211  f06f		       85 9f		      sta	entType+2
    212  f071		       a9 01		      lda	#ENT_CONE
    213  f073		       85 a0		      sta	entType+3
    214  f075		       a9 02		      lda	#ENT_SKULL
    215  f077		       85 a1		      sta	entType+4
    216  f079		       a9 01		      lda	#ENT_CONE
    217  f07b		       85 a2		      sta	entType+5
    218  f07d		       a9 96		      lda	#150
    219  f07f		       85 a3		      sta	entX+0
    220  f081		       a9 5f		      lda	#95
    221  f083		       85 a4		      sta	entX+1
    222  f085		       a9 7d		      lda	#125
    223  f087		       85 a5		      sta	entX+2
    224  f089		       a9 41		      lda	#65
    225  f08b		       85 a6		      sta	entX+3
    226  f08d		       a9 23		      lda	#35
    227  f08f		       85 a7		      sta	entX+4
    228  f091		       a9 69		      lda	#105
    229  f093		       85 a8		      sta	entX+5
    230  f095
    231  f095		       20 b5 f3 	      jsr	GetDigitPtrs	; seed digit pointers for the first HUD
    232  f098
    233  f098							;-------------------------------------------------------------
    234  f098							; Main frame loop
    235  f098							;-------------------------------------------------------------
    236  f098				   NextFrame
    237  f098		       a9 02		      lda	#2
    238  f09a		       85 01		      sta	VBLANK
      0  f09c					      VERTICAL_SYNC		; 3 vsync lines (leaves A=0)
      1  f09c		       a9 0e		      lda	#%1110
      2  f09e		       85 02	   .VSLP1     sta	WSYNC
      3  f0a0		       85 00		      sta	VSYNC
      4  f0a2		       4a		      lsr
      5  f0a3		       d0 f9		      bne	.VSLP1
    240  f0a5		       85 2c		      sta	CXCLR	; clear collision latches for this frame
    241  f0a7
    242  f0a7							; --- position the score sprites (P0+P1, 3 copies each = 6 digits) ---
    243  f0a7							; (uses 2 of the 36 VBLANK scanlines; the rest are the WSYNC loop below)
    244  f0a7		       a9 03		      lda	#THREE_COPIES
    245  f0a9		       85 04		      sta	NUSIZ0
    246  f0ab		       85 05		      sta	NUSIZ1
    247  f0ad		       a9 00		      lda	#SCORE_COL
    248  f0af		       85 06		      sta	COLUP0
    249  f0b1		       85 07		      sta	COLUP1
    250  f0b3		       85 02		      sta	WSYNC	; vblank line 1
      0  f0b5					      SLEEP	SCORE_SLEEP
      1  f0b5				   .CYCLES    SET	SCORE_SLEEP
      2  f0b5
      3  f0b5				  -	      IF	.CYCLES < 2
      4  f0b5				  -	      ECHO	"MACRO ERROR: 'SLEEP': Duration must be > 1"
      5  f0b5				  -	      ERR
      6  f0b5					      ENDIF
      7  f0b5
      8  f0b5				  -	      IF	.CYCLES & 1
      9  f0b5				  -	      IFNCONST	NO_ILLEGAL_OPCODES
     10  f0b5				  -	      nop	0
     11  f0b5				  -	      ELSE
     12  f0b5				  -	      bit	VSYNC
     13  f0b5				  -	      ENDIF
     14  f0b5				  -.CYCLES    SET	.CYCLES - 3
     15  f0b5					      ENDIF
     16  f0b5
     17  f0b5					      REPEAT	.CYCLES / 2
     18  f0b5		       ea		      nop
     17  f0b5					      REPEND
     18  f0b6		       ea		      nop
     17  f0b6					      REPEND
     18  f0b7		       ea		      nop
     17  f0b7					      REPEND
     18  f0b8		       ea		      nop
     17  f0b8					      REPEND
     18  f0b9		       ea		      nop
     17  f0b9					      REPEND
     18  f0ba		       ea		      nop
     17  f0ba					      REPEND
     18  f0bb		       ea		      nop
     17  f0bb					      REPEND
     18  f0bc		       ea		      nop
     17  f0bc					      REPEND
     18  f0bd		       ea		      nop
     17  f0bd					      REPEND
     18  f0be		       ea		      nop
     17  f0be					      REPEND
     18  f0bf		       ea		      nop
     17  f0bf					      REPEND
     18  f0c0		       ea		      nop
     17  f0c0					      REPEND
     18  f0c1		       ea		      nop
     17  f0c1					      REPEND
     18  f0c2		       ea		      nop
     17  f0c2					      REPEND
     18  f0c3		       ea		      nop
     17  f0c3					      REPEND
     18  f0c4		       ea		      nop
     17  f0c4					      REPEND
     18  f0c5		       ea		      nop
     17  f0c5					      REPEND
     18  f0c6		       ea		      nop
     19  f0c7					      REPEND
    252  f0c7		       85 10		      sta	RESP0	; coarse-position P0 and P1 together
    253  f0c9		       85 11		      sta	RESP1
    254  f0cb		       85 2b		      sta	HMCLR	; clear stray motion (player left HMP0=$80)
    255  f0cd		       a9 10		      lda	#$10
    256  f0cf		       85 21		      sta	HMP1	; nudge P1 so its copies interleave with P0's
    257  f0d1		       85 02		      sta	WSYNC	; vblank line 2
    258  f0d3		       85 2a		      sta	HMOVE
      0  f0d5					      SLEEP	24	; settle time after HMOVE before HMCLR
      1  f0d5				   .CYCLES    SET	24
      2  f0d5
      3  f0d5				  -	      IF	.CYCLES < 2
      4  f0d5				  -	      ECHO	"MACRO ERROR: 'SLEEP': Duration must be > 1"
      5  f0d5				  -	      ERR
      6  f0d5					      ENDIF
      7  f0d5
      8  f0d5				  -	      IF	.CYCLES & 1
      9  f0d5				  -	      IFNCONST	NO_ILLEGAL_OPCODES
     10  f0d5				  -	      nop	0
     11  f0d5				  -	      ELSE
     12  f0d5				  -	      bit	VSYNC
     13  f0d5				  -	      ENDIF
     14  f0d5				  -.CYCLES    SET	.CYCLES - 3
     15  f0d5					      ENDIF
     16  f0d5
     17  f0d5					      REPEAT	.CYCLES / 2
     18  f0d5		       ea		      nop
     17  f0d5					      REPEND
     18  f0d6		       ea		      nop
     17  f0d6					      REPEND
     18  f0d7		       ea		      nop
     17  f0d7					      REPEND
     18  f0d8		       ea		      nop
     17  f0d8					      REPEND
     18  f0d9		       ea		      nop
     17  f0d9					      REPEND
     18  f0da		       ea		      nop
     17  f0da					      REPEND
     18  f0db		       ea		      nop
     17  f0db					      REPEND
     18  f0dc		       ea		      nop
     17  f0dc					      REPEND
     18  f0dd		       ea		      nop
     17  f0dd					      REPEND
     18  f0de		       ea		      nop
     17  f0de					      REPEND
     18  f0df		       ea		      nop
     17  f0df					      REPEND
     18  f0e0		       ea		      nop
     19  f0e1					      REPEND
    260  f0e1		       85 2b		      sta	HMCLR
    261  f0e3		       a9 01		      lda	#1
    262  f0e5		       85 25		      sta	VDELP0	; vertical delay: enables the 6-digit retrigger
    263  f0e7		       85 26		      sta	VDELP1
    264  f0e9
    265  f0e9		       a2 22		      ldx	#34	; remaining VBLANK lines (2 + 34 = 36)
    266  f0eb				   VBlankLoop
    267  f0eb		       85 02		      sta	WSYNC
    268  f0ed		       ca		      dex
    269  f0ee		       d0 fb		      bne	VBlankLoop
    270  f0f0
    271  f0f0		       a9 00		      lda	#0
    272  f0f2		       85 01		      sta	VBLANK	; display on
    273  f0f4
    274  f0f4							;-------------------------------------------------------------
    275  f0f4							; Visible kernel (192 lines = HUD 12 + 6 bands * 30)
    276  f0f4							;-------------------------------------------------------------
    277  f0f4							; --- HUD region: 6-digit score (12 WSYNC-exact lines) ---
    278  f0f4		       a9 0e		      lda	#COL_BG
    279  f0f6		       85 08		      sta	COLUPF	; HUD line 0: playfield invisible behind the score
    280  f0f8		       20 00 f8 	      jsr	DrawDigits	; HUD lines 1-9 (DrawDigits ends on a WSYNC)
    281  f0fb							; HUD line 10: restore game sprite state
    282  f0fb		       a9 00		      lda	#0
    283  f0fd		       85 25		      sta	VDELP0
    284  f0ff		       85 26		      sta	VDELP1
    285  f101		       85 05		      sta	NUSIZ1	; entity = single copy
    286  f103		       a9 30		      lda	#$30
    287  f105		       85 04		      sta	NUSIZ0	; missile 8px wide, player single copy
    288  f107		       85 02		      sta	WSYNC
    289  f109							; HUD line 11: re-place the player P0 near PLAYER_X
      0  f109					      SLEEP	PLAYER_SLEEP
      1  f109				   .CYCLES    SET	PLAYER_SLEEP
      2  f109
      3  f109				  -	      IF	.CYCLES < 2
      4  f109				  -	      ECHO	"MACRO ERROR: 'SLEEP': Duration must be > 1"
      5  f109				  -	      ERR
      6  f109					      ENDIF
      7  f109
      8  f109					      IF	.CYCLES & 1
      9  f109					      IFNCONST	NO_ILLEGAL_OPCODES
     10  f109		       04 00		      nop	0
     11  f10b				  -	      ELSE
     12  f10b				  -	      bit	VSYNC
     13  f10b					      ENDIF
     14  f10b				   .CYCLES    SET	.CYCLES - 3
     15  f10b					      ENDIF
     16  f10b
     17  f10b					      REPEAT	.CYCLES / 2
     18  f10b		       ea		      nop
     17  f10b					      REPEND
     18  f10c		       ea		      nop
     17  f10c					      REPEND
     18  f10d		       ea		      nop
     17  f10d					      REPEND
     18  f10e		       ea		      nop
     17  f10e					      REPEND
     18  f10f		       ea		      nop
     17  f10f					      REPEND
     18  f110		       ea		      nop
     17  f110					      REPEND
     18  f111		       ea		      nop
     17  f111					      REPEND
     18  f112		       ea		      nop
     17  f112					      REPEND
     18  f113		       ea		      nop
     17  f113					      REPEND
     18  f114		       ea		      nop
     19  f115					      REPEND
    291  f115		       85 10		      sta	RESP0
    292  f117		       a9 80		      lda	#$80
    293  f119		       85 20		      sta	HMP0	; cycle-74 no-motion so band HMOVEs hold it
    294  f11b		       85 02		      sta	WSYNC
    295  f11d
    296  f11d							; Six platform bands
    297  f11d		       a9 06		      lda	#NUM_BANDS
    298  f11f		       85 83		      sta	bandCount
    299  f121				   BandLoop
    300  f121							; --- setbg line: background colour, player colour, missile off ---
    301  f121		       85 02		      sta	WSYNC
    302  f123		       a9 0e		      lda	#COL_BG
    303  f125		       85 08		      sta	COLUPF
    304  f127		       a9 02		      lda	#COL_PLAYER
    305  f129		       85 06		      sta	COLUP0
    306  f12b		       a9 00		      lda	#0
    307  f12d		       85 1d		      sta	ENAM0
    308  f12f
    309  f12f							; floor index = NUM_BANDS - bandCount, then position the gap missile
    310  f12f							; (Pos74M0 consumes exactly one scanline, HMOVE at cycle ~74)
    311  f12f		       a9 06		      lda	#NUM_BANDS
    312  f131		       38		      sec
    313  f132		       e5 83		      sbc	bandCount
    314  f134		       85 84		      sta	curFloor
    315  f136		       a8		      tay
    316  f137		       20 40 f2 	      jsr	Pos74M0	; position the gap missile (cycle-74)
    317  f13a		       a9 80		      lda	#$80
    318  f13c		       85 22		      sta	HMM0	; restore no-motion so the next HMOVE won't move it
    319  f13e		       a4 84		      ldy	curFloor
    320  f140		       20 5e f2 	      jsr	Pos74P1	; position the entity sprite GRP1 (cycle-74)
    321  f143		       a9 80		      lda	#$80
    322  f145		       85 21		      sta	HMP1	; restore no-motion
    323  f147
    324  f147							; pick player sprite (blank unless this is the player's band); on the player
    325  f147							; band, select the current run-cycle frame (both frames share a page).
    326  f147		       a5 83		      lda	bandCount
    327  f149		       c5 81		      cmp	playerBandCount
    328  f14b		       d0 0e		      bne	.blankSpr
    329  f14d		       a6 c8		      ldx	animFrame
    330  f14f		       bd 61 f4 	      lda	PlayerFrameLo,x
    331  f152		       85 87		      sta	sprPtr
    332  f154		       a9 f4		      lda	#>PlayerSprite0
    333  f156		       85 88		      sta	sprPtr+1
    334  f158		       4c 63 f1 	      jmp	.selEnt
    335  f15b				   .blankSpr
      0  f15b					      SET_POINTER	sprPtr, ZeroSprite
      1  f15b				   .POINTER   SET	sprPtr
      2  f15b				   .ADDRESS   SET	ZeroSprite
      3  f15b
      4  f15b		       a9 63		      LDA	#<.ADDRESS
      5  f15d		       85 87		      STA	.POINTER
      6  f15f		       a9 f4		      LDA	#>.ADDRESS
      7  f161		       85 88		      STA	.POINTER+1
      8  f163
    337  f163				   .selEnt
    338  f163							; entity sprite + colour for this floor's type
    339  f163		       a4 84		      ldy	curFloor
    340  f165		       b6 9d		      ldx	entType,y
    341  f167		       bd 7b f4 	      lda	EntColorTable,x
    342  f16a		       85 07		      sta	COLUP1
    343  f16c		       bd 7e f4 	      lda	EntSprLo,x
    344  f16f		       85 be		      sta	entPtr
    345  f171		       a9 f4		      lda	#>ZeroSprite
    346  f173		       85 bf		      sta	entPtr+1
    347  f175
    348  f175							; 2-line top air pad: drops the sprite within the band so its feet land on
    349  f175							; the platform below. (GRP0/GRP1 are 0 here from the previous band's clear.)
    350  f175		       85 02		      sta	WSYNC
    351  f177		       85 02		      sta	WSYNC
    352  f179
    353  f179							; sprite window: each body row (7..2) is drawn on TWO scanlines so the
    354  f179							; player / entity / cone render at 2x height from the same 8-byte data
    355  f179							; (the 2600 has no vertical stretch -- you just hold GRPx for 2 lines).
    356  f179							; No pad loop: the positioning lines above already render as background.
    357  f179		       a0 07		      ldy	#SPRITE_H-1	; 7
    358  f17b				   .sprLoop
    359  f17b		       85 02		      sta	WSYNC	; row y, 1st scanline
    360  f17d		       b1 87		      lda	(sprPtr),y
    361  f17f		       85 1b		      sta	GRP0
    362  f181		       b1 be		      lda	(entPtr),y
    363  f183		       85 1c		      sta	GRP1
    364  f185		       85 02		      sta	WSYNC	; row y, 2nd scanline (GRP0/GRP1 hold => 2x tall)
    365  f187		       88		      dey
    366  f188		       c0 01		      cpy	#1
    367  f18a		       d0 ef		      bne	.sprLoop	; rows 7..2 (the body), each twice = 12 lines
    368  f18c
    369  f18c							; Still on the last body line (row 2 = feet). After the beam has drawn the
    370  f18c							; player (~pixel 22), recolour the missile to background and enable the gap:
    371  f18c							; it stays invisible on this background line, but is then ready CLIP-FREE for
    372  f18c							; the first green line below -- so the gap shows full-height and the feet sit
    373  f18c							; directly on the platform (no blank foot row, no float).
      0  f18c					      SLEEP	24	; wait past the player sprite before recolouring P0
      1  f18c				   .CYCLES    SET	24
      2  f18c
      3  f18c				  -	      IF	.CYCLES < 2
      4  f18c				  -	      ECHO	"MACRO ERROR: 'SLEEP': Duration must be > 1"
      5  f18c				  -	      ERR
      6  f18c					      ENDIF
      7  f18c
      8  f18c				  -	      IF	.CYCLES & 1
      9  f18c				  -	      IFNCONST	NO_ILLEGAL_OPCODES
     10  f18c				  -	      nop	0
     11  f18c				  -	      ELSE
     12  f18c				  -	      bit	VSYNC
     13  f18c				  -	      ENDIF
     14  f18c				  -.CYCLES    SET	.CYCLES - 3
     15  f18c					      ENDIF
     16  f18c
     17  f18c					      REPEAT	.CYCLES / 2
     18  f18c		       ea		      nop
     17  f18c					      REPEND
     18  f18d		       ea		      nop
     17  f18d					      REPEND
     18  f18e		       ea		      nop
     17  f18e					      REPEND
     18  f18f		       ea		      nop
     17  f18f					      REPEND
     18  f190		       ea		      nop
     17  f190					      REPEND
     18  f191		       ea		      nop
     17  f191					      REPEND
     18  f192		       ea		      nop
     17  f192					      REPEND
     18  f193		       ea		      nop
     17  f193					      REPEND
     18  f194		       ea		      nop
     17  f194					      REPEND
     18  f195		       ea		      nop
     17  f195					      REPEND
     18  f196		       ea		      nop
     17  f196					      REPEND
     18  f197		       ea		      nop
     19  f198					      REPEND
    375  f198		       a9 0e		      lda	#COL_BG
    376  f19a		       85 06		      sta	COLUP0
    377  f19c		       a4 84		      ldy	curFloor
    378  f19e		       b9 35 f4 	      lda	GapOnTable,y
    379  f1a1		       85 1d		      sta	ENAM0
    380  f1a3
    381  f1a3							; green top rows. In green line 1's HBLANK (before pixel 0) clear GRP0/GRP1
    382  f1a3							; AND both VDEL "old" latches (double sta-pair: a GRP1 write refreshes GRP0's
    383  f1a3							; old latch and vice-versa) so the feet don't bleed onto the platform and no
    384  f1a3							; stale entity row reaches the score next frame (where VDELP1=1 displays it).
    385  f1a3		       85 02		      sta	WSYNC
    386  f1a5		       a9 00		      lda	#0
    387  f1a7		       85 1b		      sta	GRP0
    388  f1a9		       85 1c		      sta	GRP1
    389  f1ab		       85 1b		      sta	GRP0
    390  f1ad		       85 1c		      sta	GRP1
    391  f1af		       a9 c8		      lda	#COL_GREEN
    392  f1b1		       85 08		      sta	COLUPF
    393  f1b3		       a2 04		      ldx	#BAND_GREEN-1
    394  f1b5				   .grnLoop
    395  f1b5		       85 02		      sta	WSYNC
    396  f1b7		       ca		      dex
    397  f1b8		       d0 fb		      bne	.grnLoop
    398  f1ba
    399  f1ba							; grey underside rows
    400  f1ba		       85 02		      sta	WSYNC
    401  f1bc		       a9 06		      lda	#COL_GREY
    402  f1be		       85 08		      sta	COLUPF
    403  f1c0		       a2 05		      ldx	#BAND_GREY-1
    404  f1c2				   .gryLoop
    405  f1c2		       85 02		      sta	WSYNC
    406  f1c4		       ca		      dex
    407  f1c5		       d0 fb		      bne	.gryLoop
    408  f1c7
    409  f1c7		       c6 83		      dec	bandCount
    410  f1c9		       f0 03		      beq	.bandsDone
    411  f1cb		       4c 21 f1 	      jmp	BandLoop	; (band body > 128 bytes, so jmp not bne)
    412  f1ce				   .bandsDone
    413  f1ce
    414  f1ce							; turn the missile off before leaving the visible area
    415  f1ce		       a9 00		      lda	#0
    416  f1d0		       85 1d		      sta	ENAM0
    417  f1d2
    418  f1d2							;-------------------------------------------------------------
    419  f1d2							; Overscan (~30 lines via timer) - game logic + positioning precompute
    420  f1d2							;-------------------------------------------------------------
    421  f1d2		       a9 02		      lda	#2
    422  f1d4		       85 01		      sta	VBLANK
    423  f1d6		       a9 23		      lda	#35
    424  f1d8		       8d 96 02 	      sta	TIM64T
    425  f1db
    426  f1db		       a5 c1		      lda	gameState
    427  f1dd		       d0 13		      bne	.gsFrozen
    428  f1df							; CheckCollision must run BEFORE input/update: CXPPMM reflects the
    429  f1df							; frame just rendered, where playerFloor still matches.
    430  f1df		       20 30 f3 	      jsr	CheckCollision
    431  f1e2		       a5 c1		      lda	gameState
    432  f1e4		       d0 0f		      bne	.gsAfter	; just died this frame -> skip further updates
    433  f1e6		       20 86 f2 	      jsr	ReadInput
    434  f1e9		       20 b4 f2 	      jsr	UpdateWorld
    435  f1ec		       20 9b f2 	      jsr	AnimatePlayer	; advance the run cycle (frozen while game over)
    436  f1ef		       4c f5 f1 	      jmp	.gsAfter
    437  f1f2				   .gsFrozen
    438  f1f2		       20 85 f3 	      jsr	CheckRestart	; world frozen; fresh fire press restarts
    439  f1f5				   .gsAfter
    440  f1f5							; game-over text cycle: 240-frame period (120 GAMEOVER + 120 HInnnn)
    441  f1f5		       e6 c7		      inc	goCnt
    442  f1f7		       a5 c7		      lda	goCnt
    443  f1f9		       c9 f0		      cmp	#240
    444  f1fb		       90 04		      bcc	.goCntOk
    445  f1fd		       a9 00		      lda	#0
    446  f1ff		       85 c7		      sta	goCnt
    447  f201				   .goCntOk
    448  f201
    449  f201							; Precompute each gap's quickPos + strobe-table entry (in overscan),
    450  f201							; so the visible kernel positions in one fixed-time scanline.
    451  f201		       a2 05		      ldx	#5
    452  f203				   .precomp
    453  f203							; gap (missile 0)
    454  f203		       b5 8b		      lda	gapX,x
    455  f205		       86 86		      stx	tempFloor
    456  f207		       20 97 f3 	      jsr	CalcQuickPos	; A = quickPos (clobbers Y, tempOne)
    457  f20a		       a6 86		      ldx	tempFloor
    458  f20c		       95 91		      sta	gapQuick,x
    459  f20e		       29 0f		      and	#$0F	; low nibble = delay count = jump-table index
    460  f210		       a8		      tay
    461  f211		       b9 25 f5 	      lda	JumpTabM0,y
    462  f214		       95 97		      sta	posJmpLo,x
    463  f216							; entity (GRP1) - PosTblP1 mirrors PosTblM0, so JumpTabM0 low bytes apply
    464  f216		       b5 a3		      lda	entX,x
    465  f218		       86 86		      stx	tempFloor
    466  f21a		       20 97 f3 	      jsr	CalcQuickPos
    467  f21d		       a6 86		      ldx	tempFloor
    468  f21f		       95 b2		      sta	entQuick,x
    469  f221		       29 0f		      and	#$0F
    470  f223		       a8		      tay
    471  f224		       b9 25 f5 	      lda	JumpTabM0,y
    472  f227		       95 b8		      sta	entJmpLo,x
    473  f229		       ca		      dex
    474  f22a		       10 d7		      bpl	.precomp
    475  f22c
    476  f22c							; playerBandCount = NUM_BANDS - playerFloor (for next frame's kernel)
    477  f22c		       a9 06		      lda	#NUM_BANDS
    478  f22e		       38		      sec
    479  f22f		       e5 80		      sbc	playerFloor
    480  f231		       85 81		      sta	playerBandCount
    481  f233
    482  f233							; build the score's digit pointers for next frame's HUD
    483  f233		       20 b5 f3 	      jsr	GetDigitPtrs
    484  f236
    485  f236				   WaitOverscan
    486  f236		       ad 84 02 	      lda	INTIM
    487  f239		       d0 fb		      bne	WaitOverscan
    488  f23b		       85 02		      sta	WSYNC
    489  f23d
    490  f23d		       4c 98 f0 	      jmp	NextFrame
    491  f240
    492  f240							;-------------------------------------------------------------
    493  f240							; Pos74M0 - position Missile 0 at gap[curFloor] in one scanline.
    494  f240							;   IN: Y = curFloor. Uses precomputed gapQuick / posJmpLo.
    495  f240							;   Cycle-74 HMOVE: clean edge-to-edge positioning, no comb.
    496  f240							;-------------------------------------------------------------
    497  f240				   Pos74M0
    498  f240		       b9 91 00 	      lda	gapQuick,y
    499  f243		       85 22		      sta	HMM0	; high nibble = fine motion (low nibble ignored)
    500  f245		       29 0f		      and	#$0F
    501  f247		       aa		      tax		; X = delay count
    502  f248		       b9 97 00 	      lda	posJmpLo,y
    503  f24b		       85 89		      sta	posJmp
    504  f24d		       a9 f5		      lda	#>PosTblM0
    505  f24f		       85 8a		      sta	posJmp+1
    506  f251		       85 02		      sta	WSYNC
    507  f253							; 9 cycles of dead time (matches hmove74 calibration)
    508  f253		       ea		      nop		; 2
    509  f254		       ea		      nop		; 2
    510  f255		       ea		      nop		; 2
    511  f256		       04 ea		      .byte.b	$04,$EA	; NOP zp (3 cycles)
    512  f258				   .wait74
    513  f258		       ca		      dex
    514  f259		       10 fd		      bpl	.wait74
    515  f25b		       6c 89 00 	      jmp	(posJmp)	; into PosTblM0; strobes RESM0, HMOVE @ ~74, rts
    516  f25e
    517  f25e							;-------------------------------------------------------------
    518  f25e							; Pos74P1 - position the entity sprite (GRP1) at ent[curFloor].
    519  f25e							;   IN: Y = curFloor. Uses entQuick / entJmpLo. Same technique as
    520  f25e							;   Pos74M0, but strobes RESP1 (PosTblP1) and uses HMP1.
    521  f25e							;-------------------------------------------------------------
    522  f25e				   Pos74P1
    523  f25e		       b9 b2 00 	      lda	entQuick,y
    524  f261		       85 21		      sta	HMP1
    525  f263		       29 0f		      and	#$0F
    526  f265		       aa		      tax
    527  f266		       b9 b8 00 	      lda	entJmpLo,y
    528  f269		       85 89		      sta	posJmp
    529  f26b		       a9 f6		      lda	#>PosTblP1
    530  f26d		       85 8a		      sta	posJmp+1
    531  f26f		       85 02		      sta	WSYNC
    532  f271		       ea		      nop
    533  f272		       ea		      nop
    534  f273		       ea		      nop
    535  f274		       04 ea		      .byte.b	$04,$EA
    536  f276				   .wait74p
    537  f276		       ca		      dex
    538  f277		       10 fd		      bpl	.wait74p
    539  f279		       6c 89 00 	      jmp	(posJmp)	; into PosTblP1; strobes RESP1, HMOVE @ ~74, rts
    540  f27c
    541  f27c							;-------------------------------------------------------------
    542  f27c							; Rng - 8-bit LFSR. Advances and returns the new value in A.
    543  f27c							;-------------------------------------------------------------
    544  f27c				   Rng
    545  f27c		       a5 c0		      lda	rng
    546  f27e		       4a		      lsr
    547  f27f		       90 02		      bcc	.rngNoFb
    548  f281		       49 b4		      eor	#$B4
    549  f283				   .rngNoFb
    550  f283		       85 c0		      sta	rng
    551  f285		       60		      rts
    552  f286
    553  f286							;-------------------------------------------------------------
    554  f286							; ReadInput - one-button jump-up (rising edge of fire button)
    555  f286							;-------------------------------------------------------------
    556  f286				   ReadInput
    557  f286		       a2 00		      ldx	#0	; assume not pressed
    558  f288		       a5 0c		      lda	INPT4
    559  f28a		       30 0c		      bmi	.store	; bit7 set => not pressed
    560  f28c		       a2 01		      ldx	#1	; pressed
    561  f28e		       a5 82		      lda	btnPrev
    562  f290		       d0 06		      bne	.store	; held => no new press
    563  f292		       a5 80		      lda	playerFloor
    564  f294		       f0 02		      beq	.store	; already at top tier
    565  f296		       c6 80		      dec	playerFloor	; jump up one tier
    566  f298				   .store
    567  f298		       86 82		      stx	btnPrev
    568  f29a		       60		      rts
    569  f29b
    570  f29b							;-------------------------------------------------------------
    571  f29b							; AnimatePlayer - tick the run-cycle frame. Swaps frame every animTimer
    572  f29b							;   frames; the interval shortens with scroll speed so the player's legs
    573  f29b							;   move faster as the world speeds up.
    574  f29b							;   interval = ANIM_BASE - (scrollSpeed >> 3)
    575  f29b							;-------------------------------------------------------------
    576  f29b				   AnimatePlayer
    577  f29b		       c6 c9		      dec	animTimer
    578  f29d		       d0 14		      bne	.apDone
    579  f29f		       a5 c8		      lda	animFrame
    580  f2a1		       49 01		      eor	#1
    581  f2a3		       85 c8		      sta	animFrame	; toggle 0 <-> 1
    582  f2a5		       a5 af		      lda	scrollSpeed
    583  f2a7		       4a		      lsr
    584  f2a8		       4a		      lsr
    585  f2a9		       4a		      lsr		; scrollSpeed >> 3
    586  f2aa		       85 c9		      sta	animTimer	; (temp)
    587  f2ac		       a9 16		      lda	#ANIM_BASE
    588  f2ae		       38		      sec
    589  f2af		       e5 c9		      sbc	animTimer
    590  f2b1		       85 c9		      sta	animTimer	; reload shortened interval
    591  f2b3				   .apDone
    592  f2b3		       60		      rts
    593  f2b4
    594  f2b4							;-------------------------------------------------------------
    595  f2b4							; UpdateWorld - scroll gaps left, wrap, and fall-through check
    596  f2b4							;-------------------------------------------------------------
    597  f2b4				   UpdateWorld
    598  f2b4							; advance the PRNG once per frame so respawns stay varied
    599  f2b4		       20 7c f2 	      jsr	Rng
    600  f2b7
    601  f2b7							; Sub-pixel speed: accumulate the fractional speed; the carry is an
    602  f2b7							; extra whole pixel this frame, so the scroll step is 1 or 2 px.
    603  f2b7							; (scrollSpeed ramps with the score; see CheckCollision.)
    604  f2b7		       a5 b0		      lda	scrollFrac
    605  f2b9		       18		      clc
    606  f2ba		       65 af		      adc	scrollSpeed	; accumulate 1/32-px units
    607  f2bc		       aa		      tax		; X = total (whole.frac)
    608  f2bd		       29 1f		      and	#$1F
    609  f2bf		       85 b0		      sta	scrollFrac	; carry the fraction (low 5 bits) to next frame
    610  f2c1		       8a		      txa
    611  f2c2		       4a		      lsr
    612  f2c3		       4a		      lsr
    613  f2c4		       4a		      lsr
    614  f2c5		       4a		      lsr
    615  f2c6		       4a		      lsr		; whole pixels this frame = total >> 5
    616  f2c7		       85 b1		      sta	scrollStep
    617  f2c9
    618  f2c9				   .scrollStep
    619  f2c9							; --- scroll gaps (floors 0..4 ; floor 5 has none) ---
    620  f2c9		       a2 04		      ldx	#4
    621  f2cb				   .gapLoop
    622  f2cb		       d6 8b		      dec	gapX,x
    623  f2cd		       d0 04		      bne	.gapNext	; reached 0 => wrap to the right
    624  f2cf		       a9 9f		      lda	#GAP_WRAP
    625  f2d1		       95 8b		      sta	gapX,x
    626  f2d3				   .gapNext
    627  f2d3		       ca		      dex
    628  f2d4		       10 f5		      bpl	.gapLoop
    629  f2d6
    630  f2d6							; --- entities: scroll, hide for a random delay, re-enter ---
    631  f2d6		       a2 05		      ldx	#5
    632  f2d8				   .entLoop
    633  f2d8		       b5 9d		      lda	entType,x
    634  f2da		       f0 0e		      beq	.entWaiting	; type 0 = hidden, waiting to respawn
    635  f2dc		       d6 a3		      dec	entX,x
    636  f2de		       d0 2a		      bne	.entNext
    637  f2e0		       a9 00		      lda	#0
    638  f2e2		       95 9d		      sta	entType,x	; reached the edge -> hide + arm a respawn delay
    639  f2e4		       20 25 f3 	      jsr	SetRespawnDelay
    640  f2e7		       4c 0a f3 	      jmp	.entNext
    641  f2ea				   .entWaiting
    642  f2ea		       d6 a9		      dec	entDelay,x
    643  f2ec		       d0 1c		      bne	.entNext
    644  f2ee							; delay elapsed -> respawn, but not over this floor's gap. If the gap
    645  f2ee							; is in the spawn zone, wait a little and recheck (they scroll at the
    646  f2ee							; same speed, so clearing them at spawn keeps them apart all pass).
    647  f2ee		       b5 8b		      lda	gapX,x
    648  f2f0		       c9 91		      cmp	#GAP_SPAWN_CLEAR
    649  f2f2		       90 07		      bcc	.doSpawn
    650  f2f4		       a9 10		      lda	#ENT_DEFER
    651  f2f6		       95 a9		      sta	entDelay,x
    652  f2f8		       4c 0a f3 	      jmp	.entNext
    653  f2fb				   .doSpawn
    654  f2fb		       20 7c f2 	      jsr	Rng
    655  f2fe		       29 03		      and	#3
    656  f300		       a8		      tay
    657  f301		       b9 81 f4 	      lda	EntTypeRoll,y
    658  f304		       95 9d		      sta	entType,x
    659  f306		       a9 98		      lda	#ENT_WRAP
    660  f308		       95 a3		      sta	entX,x
    661  f30a				   .entNext
    662  f30a		       ca		      dex
    663  f30b		       10 cb		      bpl	.entLoop
    664  f30d
    665  f30d		       c6 b1		      dec	scrollStep
    666  f30f		       d0 b8		      bne	.scrollStep	; run the scroll 1 or 2 times this frame
    667  f311
    668  f311							; --- fall-through (once per frame): gap under the player? ---
    669  f311		       a5 80		      lda	playerFloor
    670  f313		       c9 05		      cmp	#5
    671  f315		       b0 0d		      bcs	.noFall	; bottom tier is solid/safe
    672  f317		       aa		      tax
    673  f318		       b5 8b		      lda	gapX,x
    674  f31a		       c9 13		      cmp	#FALL_HI+1
    675  f31c		       b0 06		      bcs	.noFall	; gap is right of the player
    676  f31e		       c9 0e		      cmp	#FALL_LO
    677  f320		       90 02		      bcc	.noFall	; gap is left of the player
    678  f322		       e6 80		      inc	playerFloor	; fall down one tier
    679  f324				   .noFall
    680  f324		       60		      rts
    681  f325
    682  f325							;-------------------------------------------------------------
    683  f325							; SetRespawnDelay - arm entDelay[X] with a randomised off-screen wait.
    684  f325							;-------------------------------------------------------------
    685  f325				   SetRespawnDelay
    686  f325		       20 7c f2 	      jsr	Rng
    687  f328		       29 7f		      and	#ENT_DELAY_MASK
    688  f32a		       18		      clc
    689  f32b		       69 20		      adc	#ENT_DELAY_MIN
    690  f32d		       95 a9		      sta	entDelay,x
    691  f32f		       60		      rts
    692  f330
    693  f330							;-------------------------------------------------------------
    694  f330							; CheckCollision - player vs the entity on the player's floor.
    695  f330							;   cone  -> +1 to the BCD score, entity consumed.
    696  f330							;   skull -> game over (freeze + red background).
    697  f330							;-------------------------------------------------------------
    698  f330				   CheckCollision
    699  f330		       a5 07		      lda	CXPPMM
    700  f332		       10 50		      bpl	.ccDone	; bit7 (P0-P1) clear -> player didn't touch an entity
    701  f334							; player's GRP0 only draws on its own floor, so a P0-P1 hit is the
    702  f334							; entity on playerFloor. Act on its type.
    703  f334		       a6 80		      ldx	playerFloor
    704  f336		       b5 9d		      lda	entType,x
    705  f338		       f0 4a		      beq	.ccDone	; guard: no entity here
    706  f33a		       c9 02		      cmp	#ENT_SKULL
    707  f33c		       f0 28		      beq	.ccSkull
    708  f33e							; cone collected: +1 (BCD). GetDigitPtrs shows scoreBCD+2 as the
    709  f33e							; leftmost (most-significant) digits, so the +1 must land on the
    710  f33e							; least-significant byte scoreBCD+0 and carry up toward +2.
    711  f33e		       f8		      sed
    712  f33f		       a5 c2		      lda	scoreBCD+0
    713  f341		       18		      clc
    714  f342		       69 01		      adc	#1
    715  f344		       85 c2		      sta	scoreBCD+0
    716  f346		       a5 c3		      lda	scoreBCD+1
    717  f348		       69 00		      adc	#0
    718  f34a		       85 c3		      sta	scoreBCD+1
    719  f34c		       a5 c4		      lda	scoreBCD+2
    720  f34e		       69 00		      adc	#0
    721  f350		       85 c4		      sta	scoreBCD+2
    722  f352		       d8		      cld
    723  f353		       a9 00		      lda	#0
    724  f355		       95 9d		      sta	entType,x	; cone consumed
    725  f357		       20 25 f3 	      jsr	SetRespawnDelay	; wait before a new entity enters this floor
    726  f35a							; ramp the scroll speed (sub-pixel speed-up with score)
    727  f35a		       a5 af		      lda	scrollSpeed
    728  f35c		       c9 80		      cmp	#SPEED_MAX
    729  f35e		       b0 24		      bcs	.ccDone	; already at max
    730  f360		       18		      clc
    731  f361		       69 01		      adc	#SPEED_INC
    732  f363		       85 af		      sta	scrollSpeed
    733  f365		       60		      rts
    734  f366				   .ccSkull
    735  f366		       a9 01		      lda	#1
    736  f368		       85 c1		      sta	gameState
    737  f36a		       a9 42		      lda	#COL_GAMEOVER
    738  f36c		       85 09		      sta	COLUBK	; red tint; NewGame restores COL_BG on restart
    739  f36e							; high score = max(hiScore, score) over the low 4 digits
    740  f36e		       a5 c3		      lda	scoreBCD+1
    741  f370		       c5 c6		      cmp	hiScore+1
    742  f372		       90 10		      bcc	.ccDone	; score's high pair < hiScore's
    743  f374		       d0 06		      bne	.ccNewHi	; score's high pair > hiScore's
    744  f376		       a5 c2		      lda	scoreBCD+0
    745  f378		       c5 c5		      cmp	hiScore+0
    746  f37a		       90 08		      bcc	.ccDone	; equal high pair, low pair lower
    747  f37c				   .ccNewHi
    748  f37c		       a5 c2		      lda	scoreBCD+0
    749  f37e		       85 c5		      sta	hiScore+0
    750  f380		       a5 c3		      lda	scoreBCD+1
    751  f382		       85 c6		      sta	hiScore+1
    752  f384				   .ccDone
    753  f384		       60		      rts
    754  f385
    755  f385							;-------------------------------------------------------------
    756  f385							; CheckRestart - during game over, a fresh fire press restarts.
    757  f385							;-------------------------------------------------------------
    758  f385				   CheckRestart
    759  f385		       a2 00		      ldx	#0
    760  f387		       a5 0c		      lda	INPT4
    761  f389		       30 09		      bmi	.crStore	; not pressed
    762  f38b		       a2 01		      ldx	#1
    763  f38d		       a5 82		      lda	btnPrev
    764  f38f		       d0 03		      bne	.crStore	; held since last frame -> no edge
    765  f391		       4c 2b f0 	      jmp	NewGame	; fresh press -> restart (keeps hiScore)
    766  f394				   .crStore
    767  f394		       86 82		      stx	btnPrev
    768  f396		       60		      rts
    769  f397
    770  f397							;-------------------------------------------------------------
    771  f397							; CalcQuickPos - A = x (0..159) -> A = quickPos
    772  f397							;   quickPos = (HMOVE fine nibble << 4) | delay count (low nibble).
    773  f397							;   Fast divide-by-15 + tables, from examples/hmove74.asm. Uses Y, tempOne.
    774  f397							;-------------------------------------------------------------
    775  f397				   CalcQuickPos
    776  f397		       85 85		      sta	tempOne
    777  f399		       4a		      lsr
    778  f39a		       69 04		      adc	#4
    779  f39c		       4a		      lsr
    780  f39d		       4a		      lsr
    781  f39e		       4a		      lsr
    782  f39f		       65 85		      adc	tempOne
    783  f3a1		       6a		      ror
    784  f3a2		       4a		      lsr
    785  f3a3		       4a		      lsr
    786  f3a4		       4a		      lsr
    787  f3a5		       a8		      tay		; Y = x / 15
    788  f3a6		       b9 3b f4 	      lda	MultTab,y
    789  f3a9		       38		      sec
    790  f3aa		       e5 85		      sbc	tempOne
    791  f3ac		       0a		      asl
    792  f3ad		       0a		      asl
    793  f3ae		       0a		      asl
    794  f3af		       0a		      asl
    795  f3b0		       18		      clc
    796  f3b1		       79 46 f4 	      adc	DelayTab,y
    797  f3b4		       60		      rts
    798  f3b5
    799  f3b5							;-------------------------------------------------------------
    800  f3b5							; GetDigitPtrs - build the 6 font pointers (Digit0..Digit5) from the
    801  f3b5							;   3-byte BCD score. Each nibble * 8 = offset into FontTable.
    802  f3b5							;   (After examples/6-digit-score.asm.)
    803  f3b5							;-------------------------------------------------------------
    804  f3b5				   GetDigitPtrs
    805  f3b5		       a5 c1		      lda	gameState
    806  f3b7		       d0 26		      bne	.goText
    807  f3b9							; --- playing: score "__nnnn" (blank leftmost two, low 4 BCD digits) ---
    808  f3b9		       a9 50		      lda	#<BlankGlyph
    809  f3bb		       85 ca		      sta	Digit0+0
    810  f3bd		       85 cc		      sta	Digit0+2
    811  f3bf		       a2 04		      ldx	#4
    812  f3c1		       a0 01		      ldy	#1
    813  f3c3				   .gdpLoop
    814  f3c3		       b9 c2 00 	      lda	scoreBCD,y
    815  f3c6		       29 f0		      and	#$f0	; high nibble * 16
    816  f3c8		       4a		      lsr		; -> * 8
    817  f3c9		       95 ca		      sta	Digit0,x
    818  f3cb		       e8		      inx
    819  f3cc		       e8		      inx
    820  f3cd		       b9 c2 00 	      lda	scoreBCD,y
    821  f3d0		       29 0f		      and	#$0f	; low nibble
    822  f3d2		       0a		      asl
    823  f3d3		       0a		      asl
    824  f3d4		       0a		      asl		; * 8
    825  f3d5		       95 ca		      sta	Digit0,x
    826  f3d7		       e8		      inx
    827  f3d8		       e8		      inx
    828  f3d9		       88		      dey
    829  f3da		       10 e7		      bpl	.gdpLoop
    830  f3dc		       4c 26 f4 	      jmp	.setHi
    831  f3df				   .goText
    832  f3df							; --- game over: alternate "GAMEOVER" and "HInnnn" every 120 frames ---
    833  f3df		       a5 c7		      lda	goCnt
    834  f3e1		       c9 78		      cmp	#120
    835  f3e3		       b0 1c		      bcs	.goHi	; goCnt 120-239 -> HInnnn
    836  f3e5							; "GAMEOVER" packed across the 6 glyph slots
    837  f3e5		       a9 58		      lda	#<GameOverGlyphs
    838  f3e7		       85 ca		      sta	Digit0+0
    839  f3e9		       18		      clc
    840  f3ea		       69 08		      adc	#8
    841  f3ec		       85 cc		      sta	Digit0+2
    842  f3ee		       69 08		      adc	#8
    843  f3f0		       85 ce		      sta	Digit0+4
    844  f3f2		       69 08		      adc	#8
    845  f3f4		       85 d0		      sta	Digit0+6
    846  f3f6		       69 08		      adc	#8
    847  f3f8		       85 d2		      sta	Digit0+8
    848  f3fa		       69 08		      adc	#8
    849  f3fc		       85 d4		      sta	Digit0+10
    850  f3fe		       4c 26 f4 	      jmp	.setHi
    851  f401				   .goHi
    852  f401							; "HI" + the 4-digit high score
    853  f401		       a9 88		      lda	#<LetterH
    854  f403		       85 ca		      sta	Digit0+0
    855  f405		       a9 90		      lda	#<LetterI
    856  f407		       85 cc		      sta	Digit0+2
    857  f409		       a2 04		      ldx	#4
    858  f40b		       a0 01		      ldy	#1
    859  f40d				   .goHiLoop
    860  f40d		       b9 c5 00 	      lda	hiScore,y
    861  f410		       29 f0		      and	#$f0
    862  f412		       4a		      lsr
    863  f413		       95 ca		      sta	Digit0,x
    864  f415		       e8		      inx
    865  f416		       e8		      inx
    866  f417		       b9 c5 00 	      lda	hiScore,y
    867  f41a		       29 0f		      and	#$0f
    868  f41c		       0a		      asl
    869  f41d		       0a		      asl
    870  f41e		       0a		      asl
    871  f41f		       95 ca		      sta	Digit0,x
    872  f421		       e8		      inx
    873  f422		       e8		      inx
    874  f423		       88		      dey
    875  f424		       10 e7		      bpl	.goHiLoop
    876  f426				   .setHi
    877  f426							; every glyph lives in the FontTable page, so all hi bytes are the same
    878  f426		       a9 f7		      lda	#>FontTable
    879  f428		       85 cb		      sta	Digit0+1
    880  f42a		       85 cd		      sta	Digit0+3
    881  f42c		       85 cf		      sta	Digit0+5
    882  f42e		       85 d1		      sta	Digit0+7
    883  f430		       85 d3		      sta	Digit0+9
    884  f432		       85 d5		      sta	Digit0+11
    885  f434		       60		      rts
    886  f435
    887  f435							;-------------------------------------------------------------
    888  f435							; Tables
    889  f435							;-------------------------------------------------------------
    890  f435							; ENAM0 enable byte per floor (bit1 = enable). Floor 5 = no gap.
    891  f435				   GapOnTable
    892  f435		       02 02 02 02*	      .byte.b	2,2,2,2,2,0
    893  f43b
    894  f43b							; quickPos divide tables (from examples/hmove74.asm)
    895  f43b				   MultTab
    896  f43b		       e7 f6 05 14*	      .byte.b	-25,-10,5,20,35,50,65,80,95,110,-21
    897  f446				   DelayTab
    898  f446		       01 02 03 04*	      .byte.b	1,2,3,4,5,6,7,8,9,10,0
    899  f451
    900  f451							; Player run-cycle frames (bottom row first; index 7 = top row). Both frames
    901  f451							; live in the same page so the kernel selects one by low byte via PlayerFrameLo.
    902  f451							; PlayerSprite1 starts as a copy of frame 0 -- edit it to make the second pose.
    903  f451				   PlayerSprite0
    904  f451		       00		      .byte.b	%00000000	; offset 0 (bottom)
    905  f452		       00		      .byte.b	%00000000	;
    906  f453		       cc		      .byte.b	%11001100	; ll  ll
    907  f454		       fc		      .byte.b	%11111100	; llllll
    908  f455		       d4		      .byte.b	%11010100	; ll l l
    909  f456		       d4		      .byte.b	%11010100	; ll l l
    910  f457		       fc		      .byte.b	%11111100	; llllll
    911  f458		       00		      .byte.b	%00000000	; (offset 7, top)
    912  f459				   PlayerSprite1
    913  f459		       00		      .byte.b	%00000000	; offset 0 (bottom)
    914  f45a		       00		      .byte.b	%00000000
    915  f45b		       48		      .byte.b	%01001000	;  l  l
    916  f45c		       48		      .byte.b	%01001000	;  l  l
    917  f45d		       fc		      .byte.b	%11111100	; llllll
    918  f45e		       d4		      .byte.b	%11010100	; ll l l
    919  f45f		       d4		      .byte.b	%11010100	; ll l l
    920  f460		       fc		      .byte.b	%11111100	; llllll  (offset 7, top)
    921  f461							; low-byte lookup for the two frames (indexed by animFrame)
    922  f461				   PlayerFrameLo
    923  f461		       51 59		      .byte.b	<PlayerSprite0, <PlayerSprite1
    924  f463
    925  f463				   ZeroSprite
    926  f463		       00 00 00 00*	      .byte.b	0,0,0,0,0,0,0,0
    927  f46b
    928  f46b							; Cone (gold) - narrow top widening to a base. Bottom row first.
    929  f46b							; Bit 7 (leftmost column) is always blank so the entity is invisible at
    930  f46b							; the wrap position (entX=159), hiding the respawn type change.
    931  f46b				   ConeSprite
    932  f46b		       00		      .byte.b	%00000000
    933  f46c		       00		      .byte.b	%00000000
    934  f46d		       ff		      .byte.b	%11111111	; wide base
    935  f46e		       42		      .byte.b	%01000010
    936  f46f		       7e		      .byte.b	%01111110
    937  f470		       24		      .byte.b	%00100100
    938  f471		       18		      .byte.b	%00011000
    939  f472		       18		      .byte.b	%00011000	; point (top)
    940  f473
    941  f473							; Skull (red) - rounded blob with an eye gap. Bottom row first.
    942  f473				   SkullSprite
    943  f473		       00		      .byte.b	%00000000
    944  f474		       00		      .byte.b	%00000000
    945  f475		       3c		      .byte.b	%00111100
    946  f476		       7e		      .byte.b	%01111110
    947  f477		       e7		      .byte.b	%11100111	; eyes
    948  f478		       bd		      .byte.b	%10111101
    949  f479		       7e		      .byte.b	%01111110
    950  f47a		       3c		      .byte.b	%00111100	; top
    951  f47b
    952  f47b							; Entity lookups indexed by entType (0 none, 1 cone, 2 skull)
    953  f47b				   EntColorTable
    954  f47b		       00 2c 46 	      .byte.b	$00, COL_CONE, COL_SKULL
    955  f47e				   EntSprLo
    956  f47e		       63 6b 73 	      .byte.b	<ZeroSprite, <ConeSprite, <SkullSprite
    957  f481							; Respawn type roll, indexed by (rng & 3): 50/50 cone / skull
    958  f481				   EntTypeRoll
    959  f481		       01 01 02 02	      .byte.b	ENT_CONE, ENT_CONE, ENT_SKULL, ENT_SKULL
    960  f485
    961  f485							;-------------------------------------------------------------
    962  f485							; Missile-0 cycle-74 strobe table (must stay within one page).
    963  f485							;   Each entry strobes RESM0; the $1C (NOP abs) swallows the next
    964  f485							;   entry's `sta RESM0`, so only the jumped-to strobe executes, then
    965  f485							;   execution falls through to `sta HMOVE` at cycle ~74.
    966  f485							;-------------------------------------------------------------
    967  f500					      org	$f500
    968  f500				   PosTblM0
    969  f500				   pM0_3
    970  f500		       85 12		      sta	RESM0
    971  f502		       1c		      .byte.b	$1C
    972  f503				   pM0_15
    973  f503		       85 12		      sta	RESM0
    974  f505		       1c		      .byte.b	$1C
    975  f506				   pM0_30
    976  f506		       85 12		      sta	RESM0
    977  f508		       1c		      .byte.b	$1C
    978  f509				   pM0_45
    979  f509		       85 12		      sta	RESM0
    980  f50b		       1c		      .byte.b	$1C
    981  f50c				   pM0_60
    982  f50c		       85 12		      sta	RESM0
    983  f50e		       1c		      .byte.b	$1C
    984  f50f				   pM0_75
    985  f50f		       85 12		      sta	RESM0
    986  f511		       1c		      .byte.b	$1C
    987  f512				   pM0_90
    988  f512		       85 12		      sta	RESM0
    989  f514		       1c		      .byte.b	$1C
    990  f515				   pM0_105
    991  f515		       85 12		      sta	RESM0
    992  f517		       1c		      .byte.b	$1C
    993  f518				   pM0_120
    994  f518		       85 12		      sta	RESM0
    995  f51a		       1c		      .byte.b	$1C
    996  f51b				   pM0_135
    997  f51b		       85 12		      sta	RESM0
    998  f51d		       1c		      .byte.b	$1C
    999  f51e				   pM0_150
   1000  f51e		       85 12		      sta	RESM0
   1001  f520		       85 2a		      sta	HMOVE
   1002  f522		       85 02		      sta	WSYNC	; re-align: the positioning line ends here so the
   1003  f524		       60		      rts		; band keeps an exact, identical scanline budget
   1004  f525
   1005  f525				   JumpTabM0
   1006  f525		       00 03 06 09*	      .byte.b	<pM0_3, <pM0_15, <pM0_30, <pM0_45, <pM0_60, <pM0_75
   1007  f52b		       12 15 18 1b*	      .byte.b	<pM0_90, <pM0_105, <pM0_120, <pM0_135, <pM0_150
   1008  f530
   1009  f530							;-------------------------------------------------------------
   1010  f530							; Player-1 (GRP1) cycle-74 strobe table. Placed at $f600 so its
   1011  f530							; entries share the SAME low bytes as PosTblM0 ($f500) -> JumpTabM0
   1012  f530							; works for both; Pos74P1 just uses the $f6 high byte.
   1013  f530							;-------------------------------------------------------------
   1014  f600					      org	$f600
   1015  f600				   PosTblP1
   1016  f600				   pP1_3
   1017  f600		       85 11		      sta	RESP1
   1018  f602		       1c		      .byte.b	$1C
   1019  f603				   pP1_15
   1020  f603		       85 11		      sta	RESP1
   1021  f605		       1c		      .byte.b	$1C
   1022  f606				   pP1_30
   1023  f606		       85 11		      sta	RESP1
   1024  f608		       1c		      .byte.b	$1C
   1025  f609				   pP1_45
   1026  f609		       85 11		      sta	RESP1
   1027  f60b		       1c		      .byte.b	$1C
   1028  f60c				   pP1_60
   1029  f60c		       85 11		      sta	RESP1
   1030  f60e		       1c		      .byte.b	$1C
   1031  f60f				   pP1_75
   1032  f60f		       85 11		      sta	RESP1
   1033  f611		       1c		      .byte.b	$1C
   1034  f612				   pP1_90
   1035  f612		       85 11		      sta	RESP1
   1036  f614		       1c		      .byte.b	$1C
   1037  f615				   pP1_105
   1038  f615		       85 11		      sta	RESP1
   1039  f617		       1c		      .byte.b	$1C
   1040  f618				   pP1_120
   1041  f618		       85 11		      sta	RESP1
   1042  f61a		       1c		      .byte.b	$1C
   1043  f61b				   pP1_135
   1044  f61b		       85 11		      sta	RESP1
   1045  f61d		       1c		      .byte.b	$1C
   1046  f61e				   pP1_150
   1047  f61e		       85 11		      sta	RESP1
   1048  f620		       85 2a		      sta	HMOVE
   1049  f622		       85 02		      sta	WSYNC
   1050  f624		       60		      rts
   1051  f625
   1052  f625							;-------------------------------------------------------------
   1053  f625							; FontTable - 8x8 bitmaps for digits 0-9 (page-aligned so each
   1054  f625							; digit's 8 bytes never cross a page). From examples/6-digit-score.asm.
   1055  f625							;-------------------------------------------------------------
   1056  f700		       00 00 00 00*	      align	$100
   1057  f700				   FontTable
   1058  f700		       00 1c 32 63*	      .byte.b	$00,$1c,$32,$63,$63,$63,$26,$1c
   1059  f708		       00 3f 0c 0c*	      .byte.b	$00,$3f,$0c,$0c,$0c,$0c,$1c,$0c
   1060  f710		       00 7f 70 3c*	      .byte.b	$00,$7f,$70,$3c,$1e,$07,$63,$3e
   1061  f718		       00 3e 63 03*	      .byte.b	$00,$3e,$63,$03,$1e,$0c,$06,$3f
   1062  f720		       00 06 06 7f*	      .byte.b	$00,$06,$06,$7f,$66,$36,$1e,$0e
   1063  f728		       00 3e 63 03*	      .byte.b	$00,$3e,$63,$03,$03,$7e,$60,$7e
   1064  f730		       00 3e 63 63*	      .byte.b	$00,$3e,$63,$63,$7e,$60,$30,$1e
   1065  f738		       00 18 18 18*	      .byte.b	$00,$18,$18,$18,$0c,$06,$63,$7f
   1066  f740		       00 3e 43 4f*	      .byte.b	$00,$3e,$43,$4f,$3c,$72,$62,$3c
   1067  f748		       00 3c 06 03*	      .byte.b	$00,$3c,$06,$03,$3f,$63,$63,$3e
   1068  f750				   BlankGlyph
   1069  f750		       00 00 00 00*	      .byte.b	$00,$00,$00,$00,$00,$00,$00,$00
   1070  f758
   1071  f758							; "GAMEOVER" packed across 6 glyph slots (8 letters in 48px). User-supplied,
   1072  f758							; with each glyph's 8 bytes reversed to the kernel's bottom-row-first order.
   1073  f758				   GameOverGlyphs
   1074  f758		       00 79 cd cd*	      .byte.b	$00,$79,$cd,$cd,$dd,$c1,$c1,$78
   1075  f760		       00 b6 b6 f6*	      .byte.b	$00,$b6,$b6,$f6,$b7,$b7,$b6,$e4
   1076  f768		       00 37 36 b6*	      .byte.b	$00,$37,$36,$b6,$f7,$76,$36,$17
   1077  f770		       00 9c 36 36*	      .byte.b	$00,$9c,$36,$36,$b6,$36,$36,$9c
   1078  f778		       00 23 73 db*	      .byte.b	$00,$23,$73,$db,$db,$db,$db,$db
   1079  f780		       00 db 1b 1e*	      .byte.b	$00,$db,$1b,$1e,$db,$1b,$1b,$de
   1080  f788
   1081  f788							; "H" and "I" for the HInnnn high-score frame (digit-font orientation:
   1082  f788							; byte order is bottom row first, top row last; 7px wide).
   1083  f788				   LetterH
   1084  f788		       00 63 63 63*	      .byte.b	$00,$63,$63,$63,$7f,$63,$63,$63
   1085  f790				   LetterI
   1086  f790		       00 3c 18 18*	      .byte.b	$00,$3c,$18,$18,$18,$18,$18,$3c
   1087  f798
   1088  f798							;-------------------------------------------------------------
   1089  f798							; DrawDigits - render the 48x8 score from Digit0..Digit5 pointers.
   1090  f798							; Page-aligned so BigLoop's branch stays in-page (exact 76-cycle rows).
   1091  f798							; After examples/6-digit-score.asm (Temp -> tempOne, LoopCount -> loopCnt).
   1092  f798							;-------------------------------------------------------------
   1093  f800		       00 00 00 00*	      align	$100
   1094  f800				   DrawDigits
   1095  f800		       a9 07		      lda	#7
   1096  f802		       85 d6		      sta	loopCnt
   1097  f804		       85 02		      sta	WSYNC
      0  f806					      SLEEP	60
      1  f806				   .CYCLES    SET	60
      2  f806
      3  f806				  -	      IF	.CYCLES < 2
      4  f806				  -	      ECHO	"MACRO ERROR: 'SLEEP': Duration must be > 1"
      5  f806				  -	      ERR
      6  f806					      ENDIF
      7  f806
      8  f806				  -	      IF	.CYCLES & 1
      9  f806				  -	      IFNCONST	NO_ILLEGAL_OPCODES
     10  f806				  -	      nop	0
     11  f806				  -	      ELSE
     12  f806				  -	      bit	VSYNC
     13  f806				  -	      ENDIF
     14  f806				  -.CYCLES    SET	.CYCLES - 3
     15  f806					      ENDIF
     16  f806
     17  f806					      REPEAT	.CYCLES / 2
     18  f806		       ea		      nop
     17  f806					      REPEND
     18  f807		       ea		      nop
     17  f807					      REPEND
     18  f808		       ea		      nop
     17  f808					      REPEND
     18  f809		       ea		      nop
     17  f809					      REPEND
     18  f80a		       ea		      nop
     17  f80a					      REPEND
     18  f80b		       ea		      nop
     17  f80b					      REPEND
     18  f80c		       ea		      nop
     17  f80c					      REPEND
     18  f80d		       ea		      nop
     17  f80d					      REPEND
     18  f80e		       ea		      nop
     17  f80e					      REPEND
     18  f80f		       ea		      nop
     17  f80f					      REPEND
     18  f810		       ea		      nop
     17  f810					      REPEND
     18  f811		       ea		      nop
     17  f811					      REPEND
     18  f812		       ea		      nop
     17  f812					      REPEND
     18  f813		       ea		      nop
     17  f813					      REPEND
     18  f814		       ea		      nop
     17  f814					      REPEND
     18  f815		       ea		      nop
     17  f815					      REPEND
     18  f816		       ea		      nop
     17  f816					      REPEND
     18  f817		       ea		      nop
     17  f817					      REPEND
     18  f818		       ea		      nop
     17  f818					      REPEND
     18  f819		       ea		      nop
     17  f819					      REPEND
     18  f81a		       ea		      nop
     17  f81a					      REPEND
     18  f81b		       ea		      nop
     17  f81b					      REPEND
     18  f81c		       ea		      nop
     17  f81c					      REPEND
     18  f81d		       ea		      nop
     17  f81d					      REPEND
     18  f81e		       ea		      nop
     17  f81e					      REPEND
     18  f81f		       ea		      nop
     17  f81f					      REPEND
     18  f820		       ea		      nop
     17  f820					      REPEND
     18  f821		       ea		      nop
     17  f821					      REPEND
     18  f822		       ea		      nop
     17  f822					      REPEND
     18  f823		       ea		      nop
     19  f824					      REPEND
   1099  f824				   .bigLoop
   1100  f824		       a4 d6		      ldy	loopCnt	; counts 7..0
   1101  f826		       b1 ca		      lda	(Digit0),y
   1102  f828		       85 1b		      sta	GRP0
   1103  f82a		       b1 cc		      lda	(Digit0+2),y
   1104  f82c		       85 1c		      sta	GRP1
   1105  f82e		       c5 00		      cmp	$00
   1106  f830		       c5 00		      cmp	$00
   1107  f832		       b1 ce		      lda	(Digit0+4),y
   1108  f834		       85 1b		      sta	GRP0
   1109  f836		       b1 d4		      lda	(Digit0+10),y
   1110  f838		       85 85		      sta	tempOne
   1111  f83a		       b1 d2		      lda	(Digit0+8),y
   1112  f83c		       aa		      tax
   1113  f83d		       b1 d0		      lda	(Digit0+6),y
   1114  f83f		       a4 85		      ldy	tempOne
   1115  f841		       85 1c		      sta	GRP1
   1116  f843		       86 1b		      stx	GRP0
   1117  f845		       84 1c		      sty	GRP1
   1118  f847		       85 1b		      sta	GRP0
   1119  f849		       c6 d6		      dec	loopCnt
   1120  f84b		       10 d7		      bpl	.bigLoop
   1121  f84d		       a9 00		      lda	#0
   1122  f84f		       85 1b		      sta	GRP0
   1123  f851		       85 1c		      sta	GRP1
   1124  f853		       85 1b		      sta	GRP0
   1125  f855		       85 1c		      sta	GRP1
   1126  f857		       85 02		      sta	WSYNC	; align: DrawDigits is exactly 9 scanlines
   1127  f859		       60		      rts
   1128  f85a
   1129  f85a							;-------------------------------------------------------------
   1130  f85a							; Vectors
   1131  f85a							;-------------------------------------------------------------
   1132  fffc					      org	$fffc
   1133  fffc		       00 f0		      .word.w	Reset
   1134  fffe		       00 f0		      .word.w	Reset
